                                      1 ;--------------------------------------------------------
                                      2 ; File Created by SDCC : free open source ANSI-C Compiler
                                      3 ; Version 3.6.0 #9615 (MINGW32)
                                      4 ;--------------------------------------------------------
                                      5 	.module u2f_hid
                                      6 	.optsdcc -mmcs51 --model-large
                                      7 	
                                      8 ;--------------------------------------------------------
                                      9 ; Public variables in this module
                                     10 ;--------------------------------------------------------
                                     11 	.globl _u2f_request
                                     12 	.globl _u2f_printlx
                                     13 	.globl _u2f_printb
                                     14 	.globl _u2f_prints
                                     15 	.globl _usb_write
                                     16 	.globl _app_wink
                                     17 	.globl _set_app_error
                                     18 	.globl _memset
                                     19 	.globl _memmove
                                     20 	.globl _U2F_BLUE
                                     21 	.globl _U2F_GREEN
                                     22 	.globl _U2F_RED
                                     23 	.globl _U2F_BUTTON_VAL
                                     24 	.globl _U2F_BUTTON
                                     25 	.globl _UART1FCN1_TFRQ
                                     26 	.globl _UART1FCN1_TXNF
                                     27 	.globl _UART1FCN1_TXHOLD
                                     28 	.globl _UART1FCN1_TIE
                                     29 	.globl _UART1FCN1_RFRQ
                                     30 	.globl _UART1FCN1_RXTO1
                                     31 	.globl _UART1FCN1_RXTO0
                                     32 	.globl _UART1FCN1_RIE
                                     33 	.globl _TMR4CN0_TF4H
                                     34 	.globl _TMR4CN0_TF4L
                                     35 	.globl _TMR4CN0_TF4LEN
                                     36 	.globl _TMR4CN0_TF4CEN
                                     37 	.globl _TMR4CN0_T4SPLIT
                                     38 	.globl _TMR4CN0_TR4
                                     39 	.globl _TMR4CN0_T4XCLK1
                                     40 	.globl _TMR4CN0_T4XCLK0
                                     41 	.globl _TMR2CN0_TF2H
                                     42 	.globl _TMR2CN0_TF2L
                                     43 	.globl _TMR2CN0_TF2LEN
                                     44 	.globl _TMR2CN0_TF2CEN
                                     45 	.globl _TMR2CN0_T2SPLIT
                                     46 	.globl _TMR2CN0_TR2
                                     47 	.globl _TMR2CN0_T2XCLK1
                                     48 	.globl _TMR2CN0_T2XCLK0
                                     49 	.globl _TCON_TF1
                                     50 	.globl _TCON_TR1
                                     51 	.globl _TCON_TF0
                                     52 	.globl _TCON_TR0
                                     53 	.globl _TCON_IE1
                                     54 	.globl _TCON_IT1
                                     55 	.globl _TCON_IE0
                                     56 	.globl _TCON_IT0
                                     57 	.globl _SPI0CN0_SPIF
                                     58 	.globl _SPI0CN0_WCOL
                                     59 	.globl _SPI0CN0_MODF
                                     60 	.globl _SPI0CN0_RXOVRN
                                     61 	.globl _SPI0CN0_NSSMD1
                                     62 	.globl _SPI0CN0_NSSMD0
                                     63 	.globl _SPI0CN0_TXNF
                                     64 	.globl _SPI0CN0_SPIEN
                                     65 	.globl _SMB0CN0_MASTER
                                     66 	.globl _SMB0CN0_TXMODE
                                     67 	.globl _SMB0CN0_STA
                                     68 	.globl _SMB0CN0_STO
                                     69 	.globl _SMB0CN0_ACKRQ
                                     70 	.globl _SMB0CN0_ARBLOST
                                     71 	.globl _SMB0CN0_ACK
                                     72 	.globl _SMB0CN0_SI
                                     73 	.globl _SCON1_OVR
                                     74 	.globl _SCON1_PERR
                                     75 	.globl _SCON1_REN
                                     76 	.globl _SCON1_TBX
                                     77 	.globl _SCON1_RBX
                                     78 	.globl _SCON1_TI
                                     79 	.globl _SCON1_RI
                                     80 	.globl _SCON0_SMODE
                                     81 	.globl _SCON0_MCE
                                     82 	.globl _SCON0_REN
                                     83 	.globl _SCON0_TB8
                                     84 	.globl _SCON0_RB8
                                     85 	.globl _SCON0_TI
                                     86 	.globl _SCON0_RI
                                     87 	.globl _PSW_CY
                                     88 	.globl _PSW_AC
                                     89 	.globl _PSW_F0
                                     90 	.globl _PSW_RS1
                                     91 	.globl _PSW_RS0
                                     92 	.globl _PSW_OV
                                     93 	.globl _PSW_F1
                                     94 	.globl _PSW_PARITY
                                     95 	.globl _PCA0CN0_CF
                                     96 	.globl _PCA0CN0_CR
                                     97 	.globl _PCA0CN0_CCF2
                                     98 	.globl _PCA0CN0_CCF1
                                     99 	.globl _PCA0CN0_CCF0
                                    100 	.globl _P3_B1
                                    101 	.globl _P3_B0
                                    102 	.globl _P2_B3
                                    103 	.globl _P2_B2
                                    104 	.globl _P2_B1
                                    105 	.globl _P2_B0
                                    106 	.globl _P1_B7
                                    107 	.globl _P1_B6
                                    108 	.globl _P1_B5
                                    109 	.globl _P1_B4
                                    110 	.globl _P1_B3
                                    111 	.globl _P1_B2
                                    112 	.globl _P1_B1
                                    113 	.globl _P1_B0
                                    114 	.globl _P0_B7
                                    115 	.globl _P0_B6
                                    116 	.globl _P0_B5
                                    117 	.globl _P0_B4
                                    118 	.globl _P0_B3
                                    119 	.globl _P0_B2
                                    120 	.globl _P0_B1
                                    121 	.globl _P0_B0
                                    122 	.globl _IP_PSPI0
                                    123 	.globl _IP_PT2
                                    124 	.globl _IP_PS0
                                    125 	.globl _IP_PT1
                                    126 	.globl _IP_PX1
                                    127 	.globl _IP_PT0
                                    128 	.globl _IP_PX0
                                    129 	.globl _IE_EA
                                    130 	.globl _IE_ESPI0
                                    131 	.globl _IE_ET2
                                    132 	.globl _IE_ES0
                                    133 	.globl _IE_ET1
                                    134 	.globl _IE_EX1
                                    135 	.globl _IE_ET0
                                    136 	.globl _IE_EX0
                                    137 	.globl _B_B7
                                    138 	.globl _B_B6
                                    139 	.globl _B_B5
                                    140 	.globl _B_B4
                                    141 	.globl _B_B3
                                    142 	.globl _B_B2
                                    143 	.globl _B_B1
                                    144 	.globl _B_B0
                                    145 	.globl _ADC0CN0_ADEN
                                    146 	.globl _ADC0CN0_ADBMEN
                                    147 	.globl _ADC0CN0_ADINT
                                    148 	.globl _ADC0CN0_ADBUSY
                                    149 	.globl _ADC0CN0_ADWINT
                                    150 	.globl _ADC0CN0_ADCM2
                                    151 	.globl _ADC0CN0_ADCM1
                                    152 	.globl _ADC0CN0_ADCM0
                                    153 	.globl _ACC_ACC7
                                    154 	.globl _ACC_ACC6
                                    155 	.globl _ACC_ACC5
                                    156 	.globl _ACC_ACC4
                                    157 	.globl _ACC_ACC3
                                    158 	.globl _ACC_ACC2
                                    159 	.globl _ACC_ACC1
                                    160 	.globl _ACC_ACC0
                                    161 	.globl __XPAGE
                                    162 	.globl _TMR4RL
                                    163 	.globl _TMR4
                                    164 	.globl _TMR3RL
                                    165 	.globl _TMR3
                                    166 	.globl _TMR2RL
                                    167 	.globl _TMR2
                                    168 	.globl _SBRL1
                                    169 	.globl _PCA0
                                    170 	.globl _PCA0CP2
                                    171 	.globl _PCA0CP1
                                    172 	.globl _PCA0CP0
                                    173 	.globl _DP
                                    174 	.globl _ADC0LT
                                    175 	.globl _ADC0
                                    176 	.globl _ADC0GT
                                    177 	.globl _XBR2
                                    178 	.globl _XBR1
                                    179 	.globl _XBR0
                                    180 	.globl _WDTCN
                                    181 	.globl _VDM0CN
                                    182 	.globl _USB0XCN
                                    183 	.globl _USB0DAT
                                    184 	.globl _USB0CF
                                    185 	.globl _USB0CDSTA
                                    186 	.globl _USB0CDCN
                                    187 	.globl _USB0CDCF
                                    188 	.globl _USB0AEC
                                    189 	.globl _USB0ADR
                                    190 	.globl _UART1LIN
                                    191 	.globl _UART1FCT
                                    192 	.globl _UART1FCN1
                                    193 	.globl _UART1FCN0
                                    194 	.globl _TMR4RLL
                                    195 	.globl _TMR4RLH
                                    196 	.globl _TMR4L
                                    197 	.globl _TMR4H
                                    198 	.globl _TMR4CN1
                                    199 	.globl _TMR4CN0
                                    200 	.globl _TMR3RLL
                                    201 	.globl _TMR3RLH
                                    202 	.globl _TMR3L
                                    203 	.globl _TMR3H
                                    204 	.globl _TMR3CN1
                                    205 	.globl _TMR3CN0
                                    206 	.globl _TMR2RLL
                                    207 	.globl _TMR2RLH
                                    208 	.globl _TMR2L
                                    209 	.globl _TMR2H
                                    210 	.globl _TMR2CN1
                                    211 	.globl _TMR2CN0
                                    212 	.globl _TMOD
                                    213 	.globl _TL1
                                    214 	.globl _TL0
                                    215 	.globl _TH1
                                    216 	.globl _TH0
                                    217 	.globl _TCON
                                    218 	.globl _SPI0FCT
                                    219 	.globl _SPI0FCN1
                                    220 	.globl _SPI0FCN0
                                    221 	.globl _SPI0DAT
                                    222 	.globl _SPI0CN0
                                    223 	.globl _SPI0CKR
                                    224 	.globl _SPI0CFG
                                    225 	.globl _SP
                                    226 	.globl _SMOD1
                                    227 	.globl _SMB0TC
                                    228 	.globl _SMB0RXLN
                                    229 	.globl _SMB0FCT
                                    230 	.globl _SMB0FCN1
                                    231 	.globl _SMB0FCN0
                                    232 	.globl _SMB0DAT
                                    233 	.globl _SMB0CN0
                                    234 	.globl _SMB0CF
                                    235 	.globl _SMB0ADR
                                    236 	.globl _SMB0ADM
                                    237 	.globl _SFRSTACK
                                    238 	.globl _SFRPGCN
                                    239 	.globl _SFRPAGE
                                    240 	.globl _SCON1
                                    241 	.globl _SCON0
                                    242 	.globl _SBUF1
                                    243 	.globl _SBUF0
                                    244 	.globl _SBRLL1
                                    245 	.globl _SBRLH1
                                    246 	.globl _SBCON1
                                    247 	.globl _RSTSRC
                                    248 	.globl _REVID
                                    249 	.globl _REG1CN
                                    250 	.globl _REG0CN
                                    251 	.globl _REF0CN
                                    252 	.globl _PSW
                                    253 	.globl _PSCTL
                                    254 	.globl _PRTDRV
                                    255 	.globl _PFE0CN
                                    256 	.globl _PCON1
                                    257 	.globl _PCON0
                                    258 	.globl _PCA0PWM
                                    259 	.globl _PCA0POL
                                    260 	.globl _PCA0MD
                                    261 	.globl _PCA0L
                                    262 	.globl _PCA0H
                                    263 	.globl _PCA0CPM2
                                    264 	.globl _PCA0CPM1
                                    265 	.globl _PCA0CPM0
                                    266 	.globl _PCA0CPL2
                                    267 	.globl _PCA0CPL1
                                    268 	.globl _PCA0CPL0
                                    269 	.globl _PCA0CPH2
                                    270 	.globl _PCA0CPH1
                                    271 	.globl _PCA0CPH0
                                    272 	.globl _PCA0CN0
                                    273 	.globl _PCA0CLR
                                    274 	.globl _PCA0CENT
                                    275 	.globl _P3MDOUT
                                    276 	.globl _P3MDIN
                                    277 	.globl _P3
                                    278 	.globl _P2SKIP
                                    279 	.globl _P2MDOUT
                                    280 	.globl _P2MDIN
                                    281 	.globl _P2MAT
                                    282 	.globl _P2MASK
                                    283 	.globl _P2
                                    284 	.globl _P1SKIP
                                    285 	.globl _P1MDOUT
                                    286 	.globl _P1MDIN
                                    287 	.globl _P1MAT
                                    288 	.globl _P1MASK
                                    289 	.globl _P1
                                    290 	.globl _P0SKIP
                                    291 	.globl _P0MDOUT
                                    292 	.globl _P0MDIN
                                    293 	.globl _P0MAT
                                    294 	.globl _P0MASK
                                    295 	.globl _P0
                                    296 	.globl _LFO0CN
                                    297 	.globl _IT01CF
                                    298 	.globl _IPH
                                    299 	.globl _IP
                                    300 	.globl _IE
                                    301 	.globl _I2C0STAT
                                    302 	.globl _I2C0SLAD
                                    303 	.globl _I2C0FCT
                                    304 	.globl _I2C0FCN1
                                    305 	.globl _I2C0FCN0
                                    306 	.globl _I2C0DOUT
                                    307 	.globl _I2C0DIN
                                    308 	.globl _I2C0CN0
                                    309 	.globl _HFOCN
                                    310 	.globl _HFO1CAL
                                    311 	.globl _HFO0CAL
                                    312 	.globl _FLKEY
                                    313 	.globl _EMI0CN
                                    314 	.globl _EIP2H
                                    315 	.globl _EIP2
                                    316 	.globl _EIP1H
                                    317 	.globl _EIP1
                                    318 	.globl _EIE2
                                    319 	.globl _EIE1
                                    320 	.globl _DPL
                                    321 	.globl _DPH
                                    322 	.globl _DEVICEID
                                    323 	.globl _DERIVID
                                    324 	.globl _CRC0ST
                                    325 	.globl _CRC0IN
                                    326 	.globl _CRC0FLIP
                                    327 	.globl _CRC0DAT
                                    328 	.globl _CRC0CNT
                                    329 	.globl _CRC0CN1
                                    330 	.globl _CRC0CN0
                                    331 	.globl _CMP1MX
                                    332 	.globl _CMP1MD
                                    333 	.globl _CMP1CN1
                                    334 	.globl _CMP1CN0
                                    335 	.globl _CMP0MX
                                    336 	.globl _CMP0MD
                                    337 	.globl _CMP0CN1
                                    338 	.globl _CMP0CN0
                                    339 	.globl _CLKSEL
                                    340 	.globl _CKCON1
                                    341 	.globl _CKCON0
                                    342 	.globl _B
                                    343 	.globl _ADC0TK
                                    344 	.globl _ADC0PWR
                                    345 	.globl _ADC0MX
                                    346 	.globl _ADC0LTL
                                    347 	.globl _ADC0LTH
                                    348 	.globl _ADC0L
                                    349 	.globl _ADC0H
                                    350 	.globl _ADC0GTL
                                    351 	.globl _ADC0GTH
                                    352 	.globl _ADC0CN1
                                    353 	.globl _ADC0CN0
                                    354 	.globl _ADC0CF
                                    355 	.globl _ADC0AC
                                    356 	.globl _ACC
                                    357 	.globl __hid_lock_cid
                                    358 	.globl __hid_lockt
                                    359 	.globl _u2f_hid_init
                                    360 	.globl _u2f_hid_set_len
                                    361 	.globl _u2f_hid_flush
                                    362 	.globl _u2f_hid_writeback
                                    363 	.globl _u2f_hid_check_timeouts
                                    364 	.globl _u2f_hid_request
                                    365 ;--------------------------------------------------------
                                    366 ; special function registers
                                    367 ;--------------------------------------------------------
                                    368 	.area RSEG    (ABS,DATA)
      000000                        369 	.org 0x0000
                           0000E0   370 G$ACC$0$0 == 0x00e0
                           0000E0   371 _ACC	=	0x00e0
                           0000B3   372 G$ADC0AC$0$0 == 0x00b3
                           0000B3   373 _ADC0AC	=	0x00b3
                           0000BC   374 G$ADC0CF$0$0 == 0x00bc
                           0000BC   375 _ADC0CF	=	0x00bc
                           0000E8   376 G$ADC0CN0$0$0 == 0x00e8
                           0000E8   377 _ADC0CN0	=	0x00e8
                           0000B2   378 G$ADC0CN1$0$0 == 0x00b2
                           0000B2   379 _ADC0CN1	=	0x00b2
                           0000C4   380 G$ADC0GTH$0$0 == 0x00c4
                           0000C4   381 _ADC0GTH	=	0x00c4
                           0000C3   382 G$ADC0GTL$0$0 == 0x00c3
                           0000C3   383 _ADC0GTL	=	0x00c3
                           0000BE   384 G$ADC0H$0$0 == 0x00be
                           0000BE   385 _ADC0H	=	0x00be
                           0000BD   386 G$ADC0L$0$0 == 0x00bd
                           0000BD   387 _ADC0L	=	0x00bd
                           0000C6   388 G$ADC0LTH$0$0 == 0x00c6
                           0000C6   389 _ADC0LTH	=	0x00c6
                           0000C5   390 G$ADC0LTL$0$0 == 0x00c5
                           0000C5   391 _ADC0LTL	=	0x00c5
                           0000BB   392 G$ADC0MX$0$0 == 0x00bb
                           0000BB   393 _ADC0MX	=	0x00bb
                           0000DF   394 G$ADC0PWR$0$0 == 0x00df
                           0000DF   395 _ADC0PWR	=	0x00df
                           0000B9   396 G$ADC0TK$0$0 == 0x00b9
                           0000B9   397 _ADC0TK	=	0x00b9
                           0000F0   398 G$B$0$0 == 0x00f0
                           0000F0   399 _B	=	0x00f0
                           00008E   400 G$CKCON0$0$0 == 0x008e
                           00008E   401 _CKCON0	=	0x008e
                           0000A6   402 G$CKCON1$0$0 == 0x00a6
                           0000A6   403 _CKCON1	=	0x00a6
                           0000A9   404 G$CLKSEL$0$0 == 0x00a9
                           0000A9   405 _CLKSEL	=	0x00a9
                           00009B   406 G$CMP0CN0$0$0 == 0x009b
                           00009B   407 _CMP0CN0	=	0x009b
                           000099   408 G$CMP0CN1$0$0 == 0x0099
                           000099   409 _CMP0CN1	=	0x0099
                           00009D   410 G$CMP0MD$0$0 == 0x009d
                           00009D   411 _CMP0MD	=	0x009d
                           00009F   412 G$CMP0MX$0$0 == 0x009f
                           00009F   413 _CMP0MX	=	0x009f
                           0000BF   414 G$CMP1CN0$0$0 == 0x00bf
                           0000BF   415 _CMP1CN0	=	0x00bf
                           0000AC   416 G$CMP1CN1$0$0 == 0x00ac
                           0000AC   417 _CMP1CN1	=	0x00ac
                           0000AB   418 G$CMP1MD$0$0 == 0x00ab
                           0000AB   419 _CMP1MD	=	0x00ab
                           0000AA   420 G$CMP1MX$0$0 == 0x00aa
                           0000AA   421 _CMP1MX	=	0x00aa
                           0000CE   422 G$CRC0CN0$0$0 == 0x00ce
                           0000CE   423 _CRC0CN0	=	0x00ce
                           000086   424 G$CRC0CN1$0$0 == 0x0086
                           000086   425 _CRC0CN1	=	0x0086
                           0000D3   426 G$CRC0CNT$0$0 == 0x00d3
                           0000D3   427 _CRC0CNT	=	0x00d3
                           0000DE   428 G$CRC0DAT$0$0 == 0x00de
                           0000DE   429 _CRC0DAT	=	0x00de
                           0000CF   430 G$CRC0FLIP$0$0 == 0x00cf
                           0000CF   431 _CRC0FLIP	=	0x00cf
                           0000DD   432 G$CRC0IN$0$0 == 0x00dd
                           0000DD   433 _CRC0IN	=	0x00dd
                           0000D2   434 G$CRC0ST$0$0 == 0x00d2
                           0000D2   435 _CRC0ST	=	0x00d2
                           0000AD   436 G$DERIVID$0$0 == 0x00ad
                           0000AD   437 _DERIVID	=	0x00ad
                           0000B5   438 G$DEVICEID$0$0 == 0x00b5
                           0000B5   439 _DEVICEID	=	0x00b5
                           000083   440 G$DPH$0$0 == 0x0083
                           000083   441 _DPH	=	0x0083
                           000082   442 G$DPL$0$0 == 0x0082
                           000082   443 _DPL	=	0x0082
                           0000E6   444 G$EIE1$0$0 == 0x00e6
                           0000E6   445 _EIE1	=	0x00e6
                           0000CE   446 G$EIE2$0$0 == 0x00ce
                           0000CE   447 _EIE2	=	0x00ce
                           0000F3   448 G$EIP1$0$0 == 0x00f3
                           0000F3   449 _EIP1	=	0x00f3
                           0000F5   450 G$EIP1H$0$0 == 0x00f5
                           0000F5   451 _EIP1H	=	0x00f5
                           0000F4   452 G$EIP2$0$0 == 0x00f4
                           0000F4   453 _EIP2	=	0x00f4
                           0000F6   454 G$EIP2H$0$0 == 0x00f6
                           0000F6   455 _EIP2H	=	0x00f6
                           0000E7   456 G$EMI0CN$0$0 == 0x00e7
                           0000E7   457 _EMI0CN	=	0x00e7
                           0000B7   458 G$FLKEY$0$0 == 0x00b7
                           0000B7   459 _FLKEY	=	0x00b7
                           0000C7   460 G$HFO0CAL$0$0 == 0x00c7
                           0000C7   461 _HFO0CAL	=	0x00c7
                           0000D6   462 G$HFO1CAL$0$0 == 0x00d6
                           0000D6   463 _HFO1CAL	=	0x00d6
                           0000EF   464 G$HFOCN$0$0 == 0x00ef
                           0000EF   465 _HFOCN	=	0x00ef
                           0000BA   466 G$I2C0CN0$0$0 == 0x00ba
                           0000BA   467 _I2C0CN0	=	0x00ba
                           0000BC   468 G$I2C0DIN$0$0 == 0x00bc
                           0000BC   469 _I2C0DIN	=	0x00bc
                           0000BB   470 G$I2C0DOUT$0$0 == 0x00bb
                           0000BB   471 _I2C0DOUT	=	0x00bb
                           0000AD   472 G$I2C0FCN0$0$0 == 0x00ad
                           0000AD   473 _I2C0FCN0	=	0x00ad
                           0000AB   474 G$I2C0FCN1$0$0 == 0x00ab
                           0000AB   475 _I2C0FCN1	=	0x00ab
                           0000F5   476 G$I2C0FCT$0$0 == 0x00f5
                           0000F5   477 _I2C0FCT	=	0x00f5
                           0000BD   478 G$I2C0SLAD$0$0 == 0x00bd
                           0000BD   479 _I2C0SLAD	=	0x00bd
                           0000B9   480 G$I2C0STAT$0$0 == 0x00b9
                           0000B9   481 _I2C0STAT	=	0x00b9
                           0000A8   482 G$IE$0$0 == 0x00a8
                           0000A8   483 _IE	=	0x00a8
                           0000B8   484 G$IP$0$0 == 0x00b8
                           0000B8   485 _IP	=	0x00b8
                           0000F2   486 G$IPH$0$0 == 0x00f2
                           0000F2   487 _IPH	=	0x00f2
                           0000E4   488 G$IT01CF$0$0 == 0x00e4
                           0000E4   489 _IT01CF	=	0x00e4
                           0000B1   490 G$LFO0CN$0$0 == 0x00b1
                           0000B1   491 _LFO0CN	=	0x00b1
                           000080   492 G$P0$0$0 == 0x0080
                           000080   493 _P0	=	0x0080
                           0000FE   494 G$P0MASK$0$0 == 0x00fe
                           0000FE   495 _P0MASK	=	0x00fe
                           0000FD   496 G$P0MAT$0$0 == 0x00fd
                           0000FD   497 _P0MAT	=	0x00fd
                           0000F1   498 G$P0MDIN$0$0 == 0x00f1
                           0000F1   499 _P0MDIN	=	0x00f1
                           0000A4   500 G$P0MDOUT$0$0 == 0x00a4
                           0000A4   501 _P0MDOUT	=	0x00a4
                           0000D4   502 G$P0SKIP$0$0 == 0x00d4
                           0000D4   503 _P0SKIP	=	0x00d4
                           000090   504 G$P1$0$0 == 0x0090
                           000090   505 _P1	=	0x0090
                           0000EE   506 G$P1MASK$0$0 == 0x00ee
                           0000EE   507 _P1MASK	=	0x00ee
                           0000ED   508 G$P1MAT$0$0 == 0x00ed
                           0000ED   509 _P1MAT	=	0x00ed
                           0000F2   510 G$P1MDIN$0$0 == 0x00f2
                           0000F2   511 _P1MDIN	=	0x00f2
                           0000A5   512 G$P1MDOUT$0$0 == 0x00a5
                           0000A5   513 _P1MDOUT	=	0x00a5
                           0000D5   514 G$P1SKIP$0$0 == 0x00d5
                           0000D5   515 _P1SKIP	=	0x00d5
                           0000A0   516 G$P2$0$0 == 0x00a0
                           0000A0   517 _P2	=	0x00a0
                           0000FC   518 G$P2MASK$0$0 == 0x00fc
                           0000FC   519 _P2MASK	=	0x00fc
                           0000FB   520 G$P2MAT$0$0 == 0x00fb
                           0000FB   521 _P2MAT	=	0x00fb
                           0000F3   522 G$P2MDIN$0$0 == 0x00f3
                           0000F3   523 _P2MDIN	=	0x00f3
                           0000A6   524 G$P2MDOUT$0$0 == 0x00a6
                           0000A6   525 _P2MDOUT	=	0x00a6
                           0000CC   526 G$P2SKIP$0$0 == 0x00cc
                           0000CC   527 _P2SKIP	=	0x00cc
                           0000B0   528 G$P3$0$0 == 0x00b0
                           0000B0   529 _P3	=	0x00b0
                           0000F4   530 G$P3MDIN$0$0 == 0x00f4
                           0000F4   531 _P3MDIN	=	0x00f4
                           00009C   532 G$P3MDOUT$0$0 == 0x009c
                           00009C   533 _P3MDOUT	=	0x009c
                           00009E   534 G$PCA0CENT$0$0 == 0x009e
                           00009E   535 _PCA0CENT	=	0x009e
                           00009C   536 G$PCA0CLR$0$0 == 0x009c
                           00009C   537 _PCA0CLR	=	0x009c
                           0000D8   538 G$PCA0CN0$0$0 == 0x00d8
                           0000D8   539 _PCA0CN0	=	0x00d8
                           0000FC   540 G$PCA0CPH0$0$0 == 0x00fc
                           0000FC   541 _PCA0CPH0	=	0x00fc
                           0000EA   542 G$PCA0CPH1$0$0 == 0x00ea
                           0000EA   543 _PCA0CPH1	=	0x00ea
                           0000EC   544 G$PCA0CPH2$0$0 == 0x00ec
                           0000EC   545 _PCA0CPH2	=	0x00ec
                           0000FB   546 G$PCA0CPL0$0$0 == 0x00fb
                           0000FB   547 _PCA0CPL0	=	0x00fb
                           0000E9   548 G$PCA0CPL1$0$0 == 0x00e9
                           0000E9   549 _PCA0CPL1	=	0x00e9
                           0000EB   550 G$PCA0CPL2$0$0 == 0x00eb
                           0000EB   551 _PCA0CPL2	=	0x00eb
                           0000DA   552 G$PCA0CPM0$0$0 == 0x00da
                           0000DA   553 _PCA0CPM0	=	0x00da
                           0000DB   554 G$PCA0CPM1$0$0 == 0x00db
                           0000DB   555 _PCA0CPM1	=	0x00db
                           0000DC   556 G$PCA0CPM2$0$0 == 0x00dc
                           0000DC   557 _PCA0CPM2	=	0x00dc
                           0000FA   558 G$PCA0H$0$0 == 0x00fa
                           0000FA   559 _PCA0H	=	0x00fa
                           0000F9   560 G$PCA0L$0$0 == 0x00f9
                           0000F9   561 _PCA0L	=	0x00f9
                           0000D9   562 G$PCA0MD$0$0 == 0x00d9
                           0000D9   563 _PCA0MD	=	0x00d9
                           000096   564 G$PCA0POL$0$0 == 0x0096
                           000096   565 _PCA0POL	=	0x0096
                           0000F7   566 G$PCA0PWM$0$0 == 0x00f7
                           0000F7   567 _PCA0PWM	=	0x00f7
                           000087   568 G$PCON0$0$0 == 0x0087
                           000087   569 _PCON0	=	0x0087
                           00009A   570 G$PCON1$0$0 == 0x009a
                           00009A   571 _PCON1	=	0x009a
                           0000C1   572 G$PFE0CN$0$0 == 0x00c1
                           0000C1   573 _PFE0CN	=	0x00c1
                           0000F6   574 G$PRTDRV$0$0 == 0x00f6
                           0000F6   575 _PRTDRV	=	0x00f6
                           00008F   576 G$PSCTL$0$0 == 0x008f
                           00008F   577 _PSCTL	=	0x008f
                           0000D0   578 G$PSW$0$0 == 0x00d0
                           0000D0   579 _PSW	=	0x00d0
                           0000D1   580 G$REF0CN$0$0 == 0x00d1
                           0000D1   581 _REF0CN	=	0x00d1
                           0000C9   582 G$REG0CN$0$0 == 0x00c9
                           0000C9   583 _REG0CN	=	0x00c9
                           0000C6   584 G$REG1CN$0$0 == 0x00c6
                           0000C6   585 _REG1CN	=	0x00c6
                           0000B6   586 G$REVID$0$0 == 0x00b6
                           0000B6   587 _REVID	=	0x00b6
                           0000EF   588 G$RSTSRC$0$0 == 0x00ef
                           0000EF   589 _RSTSRC	=	0x00ef
                           000094   590 G$SBCON1$0$0 == 0x0094
                           000094   591 _SBCON1	=	0x0094
                           000096   592 G$SBRLH1$0$0 == 0x0096
                           000096   593 _SBRLH1	=	0x0096
                           000095   594 G$SBRLL1$0$0 == 0x0095
                           000095   595 _SBRLL1	=	0x0095
                           000099   596 G$SBUF0$0$0 == 0x0099
                           000099   597 _SBUF0	=	0x0099
                           000092   598 G$SBUF1$0$0 == 0x0092
                           000092   599 _SBUF1	=	0x0092
                           000098   600 G$SCON0$0$0 == 0x0098
                           000098   601 _SCON0	=	0x0098
                           0000C8   602 G$SCON1$0$0 == 0x00c8
                           0000C8   603 _SCON1	=	0x00c8
                           0000A7   604 G$SFRPAGE$0$0 == 0x00a7
                           0000A7   605 _SFRPAGE	=	0x00a7
                           0000CF   606 G$SFRPGCN$0$0 == 0x00cf
                           0000CF   607 _SFRPGCN	=	0x00cf
                           0000D7   608 G$SFRSTACK$0$0 == 0x00d7
                           0000D7   609 _SFRSTACK	=	0x00d7
                           0000D6   610 G$SMB0ADM$0$0 == 0x00d6
                           0000D6   611 _SMB0ADM	=	0x00d6
                           0000D7   612 G$SMB0ADR$0$0 == 0x00d7
                           0000D7   613 _SMB0ADR	=	0x00d7
                           0000C1   614 G$SMB0CF$0$0 == 0x00c1
                           0000C1   615 _SMB0CF	=	0x00c1
                           0000C0   616 G$SMB0CN0$0$0 == 0x00c0
                           0000C0   617 _SMB0CN0	=	0x00c0
                           0000C2   618 G$SMB0DAT$0$0 == 0x00c2
                           0000C2   619 _SMB0DAT	=	0x00c2
                           0000C3   620 G$SMB0FCN0$0$0 == 0x00c3
                           0000C3   621 _SMB0FCN0	=	0x00c3
                           0000C4   622 G$SMB0FCN1$0$0 == 0x00c4
                           0000C4   623 _SMB0FCN1	=	0x00c4
                           0000EF   624 G$SMB0FCT$0$0 == 0x00ef
                           0000EF   625 _SMB0FCT	=	0x00ef
                           0000C5   626 G$SMB0RXLN$0$0 == 0x00c5
                           0000C5   627 _SMB0RXLN	=	0x00c5
                           0000AC   628 G$SMB0TC$0$0 == 0x00ac
                           0000AC   629 _SMB0TC	=	0x00ac
                           000093   630 G$SMOD1$0$0 == 0x0093
                           000093   631 _SMOD1	=	0x0093
                           000081   632 G$SP$0$0 == 0x0081
                           000081   633 _SP	=	0x0081
                           0000A1   634 G$SPI0CFG$0$0 == 0x00a1
                           0000A1   635 _SPI0CFG	=	0x00a1
                           0000A2   636 G$SPI0CKR$0$0 == 0x00a2
                           0000A2   637 _SPI0CKR	=	0x00a2
                           0000F8   638 G$SPI0CN0$0$0 == 0x00f8
                           0000F8   639 _SPI0CN0	=	0x00f8
                           0000A3   640 G$SPI0DAT$0$0 == 0x00a3
                           0000A3   641 _SPI0DAT	=	0x00a3
                           00009A   642 G$SPI0FCN0$0$0 == 0x009a
                           00009A   643 _SPI0FCN0	=	0x009a
                           00009B   644 G$SPI0FCN1$0$0 == 0x009b
                           00009B   645 _SPI0FCN1	=	0x009b
                           0000F7   646 G$SPI0FCT$0$0 == 0x00f7
                           0000F7   647 _SPI0FCT	=	0x00f7
                           000088   648 G$TCON$0$0 == 0x0088
                           000088   649 _TCON	=	0x0088
                           00008C   650 G$TH0$0$0 == 0x008c
                           00008C   651 _TH0	=	0x008c
                           00008D   652 G$TH1$0$0 == 0x008d
                           00008D   653 _TH1	=	0x008d
                           00008A   654 G$TL0$0$0 == 0x008a
                           00008A   655 _TL0	=	0x008a
                           00008B   656 G$TL1$0$0 == 0x008b
                           00008B   657 _TL1	=	0x008b
                           000089   658 G$TMOD$0$0 == 0x0089
                           000089   659 _TMOD	=	0x0089
                           0000C8   660 G$TMR2CN0$0$0 == 0x00c8
                           0000C8   661 _TMR2CN0	=	0x00c8
                           0000FD   662 G$TMR2CN1$0$0 == 0x00fd
                           0000FD   663 _TMR2CN1	=	0x00fd
                           0000CD   664 G$TMR2H$0$0 == 0x00cd
                           0000CD   665 _TMR2H	=	0x00cd
                           0000CC   666 G$TMR2L$0$0 == 0x00cc
                           0000CC   667 _TMR2L	=	0x00cc
                           0000CB   668 G$TMR2RLH$0$0 == 0x00cb
                           0000CB   669 _TMR2RLH	=	0x00cb
                           0000CA   670 G$TMR2RLL$0$0 == 0x00ca
                           0000CA   671 _TMR2RLL	=	0x00ca
                           000091   672 G$TMR3CN0$0$0 == 0x0091
                           000091   673 _TMR3CN0	=	0x0091
                           0000FE   674 G$TMR3CN1$0$0 == 0x00fe
                           0000FE   675 _TMR3CN1	=	0x00fe
                           000095   676 G$TMR3H$0$0 == 0x0095
                           000095   677 _TMR3H	=	0x0095
                           000094   678 G$TMR3L$0$0 == 0x0094
                           000094   679 _TMR3L	=	0x0094
                           000093   680 G$TMR3RLH$0$0 == 0x0093
                           000093   681 _TMR3RLH	=	0x0093
                           000092   682 G$TMR3RLL$0$0 == 0x0092
                           000092   683 _TMR3RLL	=	0x0092
                           000098   684 G$TMR4CN0$0$0 == 0x0098
                           000098   685 _TMR4CN0	=	0x0098
                           0000FF   686 G$TMR4CN1$0$0 == 0x00ff
                           0000FF   687 _TMR4CN1	=	0x00ff
                           0000A5   688 G$TMR4H$0$0 == 0x00a5
                           0000A5   689 _TMR4H	=	0x00a5
                           0000A4   690 G$TMR4L$0$0 == 0x00a4
                           0000A4   691 _TMR4L	=	0x00a4
                           0000A3   692 G$TMR4RLH$0$0 == 0x00a3
                           0000A3   693 _TMR4RLH	=	0x00a3
                           0000A2   694 G$TMR4RLL$0$0 == 0x00a2
                           0000A2   695 _TMR4RLL	=	0x00a2
                           00009D   696 G$UART1FCN0$0$0 == 0x009d
                           00009D   697 _UART1FCN0	=	0x009d
                           0000D8   698 G$UART1FCN1$0$0 == 0x00d8
                           0000D8   699 _UART1FCN1	=	0x00d8
                           0000FA   700 G$UART1FCT$0$0 == 0x00fa
                           0000FA   701 _UART1FCT	=	0x00fa
                           00009E   702 G$UART1LIN$0$0 == 0x009e
                           00009E   703 _UART1LIN	=	0x009e
                           0000AE   704 G$USB0ADR$0$0 == 0x00ae
                           0000AE   705 _USB0ADR	=	0x00ae
                           0000B2   706 G$USB0AEC$0$0 == 0x00b2
                           0000B2   707 _USB0AEC	=	0x00b2
                           0000B6   708 G$USB0CDCF$0$0 == 0x00b6
                           0000B6   709 _USB0CDCF	=	0x00b6
                           0000BE   710 G$USB0CDCN$0$0 == 0x00be
                           0000BE   711 _USB0CDCN	=	0x00be
                           0000BF   712 G$USB0CDSTA$0$0 == 0x00bf
                           0000BF   713 _USB0CDSTA	=	0x00bf
                           0000B5   714 G$USB0CF$0$0 == 0x00b5
                           0000B5   715 _USB0CF	=	0x00b5
                           0000AF   716 G$USB0DAT$0$0 == 0x00af
                           0000AF   717 _USB0DAT	=	0x00af
                           0000B3   718 G$USB0XCN$0$0 == 0x00b3
                           0000B3   719 _USB0XCN	=	0x00b3
                           0000FF   720 G$VDM0CN$0$0 == 0x00ff
                           0000FF   721 _VDM0CN	=	0x00ff
                           000097   722 G$WDTCN$0$0 == 0x0097
                           000097   723 _WDTCN	=	0x0097
                           0000E1   724 G$XBR0$0$0 == 0x00e1
                           0000E1   725 _XBR0	=	0x00e1
                           0000E2   726 G$XBR1$0$0 == 0x00e2
                           0000E2   727 _XBR1	=	0x00e2
                           0000E3   728 G$XBR2$0$0 == 0x00e3
                           0000E3   729 _XBR2	=	0x00e3
                           0000C3   730 G$ADC0GT$0$0 == 0x00c3
                           0000C3   731 _ADC0GT	=	0x00c3
                           0000BD   732 G$ADC0$0$0 == 0x00bd
                           0000BD   733 _ADC0	=	0x00bd
                           0000C5   734 G$ADC0LT$0$0 == 0x00c5
                           0000C5   735 _ADC0LT	=	0x00c5
                           000082   736 G$DP$0$0 == 0x0082
                           000082   737 _DP	=	0x0082
                           0000FB   738 G$PCA0CP0$0$0 == 0x00fb
                           0000FB   739 _PCA0CP0	=	0x00fb
                           0000E9   740 G$PCA0CP1$0$0 == 0x00e9
                           0000E9   741 _PCA0CP1	=	0x00e9
                           0000EB   742 G$PCA0CP2$0$0 == 0x00eb
                           0000EB   743 _PCA0CP2	=	0x00eb
                           0000F9   744 G$PCA0$0$0 == 0x00f9
                           0000F9   745 _PCA0	=	0x00f9
                           000095   746 G$SBRL1$0$0 == 0x0095
                           000095   747 _SBRL1	=	0x0095
                           0000CC   748 G$TMR2$0$0 == 0x00cc
                           0000CC   749 _TMR2	=	0x00cc
                           0000CA   750 G$TMR2RL$0$0 == 0x00ca
                           0000CA   751 _TMR2RL	=	0x00ca
                           000094   752 G$TMR3$0$0 == 0x0094
                           000094   753 _TMR3	=	0x0094
                           000092   754 G$TMR3RL$0$0 == 0x0092
                           000092   755 _TMR3RL	=	0x0092
                           0000A4   756 G$TMR4$0$0 == 0x00a4
                           0000A4   757 _TMR4	=	0x00a4
                           0000A2   758 G$TMR4RL$0$0 == 0x00a2
                           0000A2   759 _TMR4RL	=	0x00a2
                           0000AA   760 G$_XPAGE$0$0 == 0x00aa
                           0000AA   761 __XPAGE	=	0x00aa
                                    762 ;--------------------------------------------------------
                                    763 ; special function bits
                                    764 ;--------------------------------------------------------
                                    765 	.area RSEG    (ABS,DATA)
      000000                        766 	.org 0x0000
                           0000E0   767 G$ACC_ACC0$0$0 == 0x00e0
                           0000E0   768 _ACC_ACC0	=	0x00e0
                           0000E1   769 G$ACC_ACC1$0$0 == 0x00e1
                           0000E1   770 _ACC_ACC1	=	0x00e1
                           0000E2   771 G$ACC_ACC2$0$0 == 0x00e2
                           0000E2   772 _ACC_ACC2	=	0x00e2
                           0000E3   773 G$ACC_ACC3$0$0 == 0x00e3
                           0000E3   774 _ACC_ACC3	=	0x00e3
                           0000E4   775 G$ACC_ACC4$0$0 == 0x00e4
                           0000E4   776 _ACC_ACC4	=	0x00e4
                           0000E5   777 G$ACC_ACC5$0$0 == 0x00e5
                           0000E5   778 _ACC_ACC5	=	0x00e5
                           0000E6   779 G$ACC_ACC6$0$0 == 0x00e6
                           0000E6   780 _ACC_ACC6	=	0x00e6
                           0000E7   781 G$ACC_ACC7$0$0 == 0x00e7
                           0000E7   782 _ACC_ACC7	=	0x00e7
                           0000E8   783 G$ADC0CN0_ADCM0$0$0 == 0x00e8
                           0000E8   784 _ADC0CN0_ADCM0	=	0x00e8
                           0000E9   785 G$ADC0CN0_ADCM1$0$0 == 0x00e9
                           0000E9   786 _ADC0CN0_ADCM1	=	0x00e9
                           0000EA   787 G$ADC0CN0_ADCM2$0$0 == 0x00ea
                           0000EA   788 _ADC0CN0_ADCM2	=	0x00ea
                           0000EB   789 G$ADC0CN0_ADWINT$0$0 == 0x00eb
                           0000EB   790 _ADC0CN0_ADWINT	=	0x00eb
                           0000EC   791 G$ADC0CN0_ADBUSY$0$0 == 0x00ec
                           0000EC   792 _ADC0CN0_ADBUSY	=	0x00ec
                           0000ED   793 G$ADC0CN0_ADINT$0$0 == 0x00ed
                           0000ED   794 _ADC0CN0_ADINT	=	0x00ed
                           0000EE   795 G$ADC0CN0_ADBMEN$0$0 == 0x00ee
                           0000EE   796 _ADC0CN0_ADBMEN	=	0x00ee
                           0000EF   797 G$ADC0CN0_ADEN$0$0 == 0x00ef
                           0000EF   798 _ADC0CN0_ADEN	=	0x00ef
                           0000F0   799 G$B_B0$0$0 == 0x00f0
                           0000F0   800 _B_B0	=	0x00f0
                           0000F1   801 G$B_B1$0$0 == 0x00f1
                           0000F1   802 _B_B1	=	0x00f1
                           0000F2   803 G$B_B2$0$0 == 0x00f2
                           0000F2   804 _B_B2	=	0x00f2
                           0000F3   805 G$B_B3$0$0 == 0x00f3
                           0000F3   806 _B_B3	=	0x00f3
                           0000F4   807 G$B_B4$0$0 == 0x00f4
                           0000F4   808 _B_B4	=	0x00f4
                           0000F5   809 G$B_B5$0$0 == 0x00f5
                           0000F5   810 _B_B5	=	0x00f5
                           0000F6   811 G$B_B6$0$0 == 0x00f6
                           0000F6   812 _B_B6	=	0x00f6
                           0000F7   813 G$B_B7$0$0 == 0x00f7
                           0000F7   814 _B_B7	=	0x00f7
                           0000A8   815 G$IE_EX0$0$0 == 0x00a8
                           0000A8   816 _IE_EX0	=	0x00a8
                           0000A9   817 G$IE_ET0$0$0 == 0x00a9
                           0000A9   818 _IE_ET0	=	0x00a9
                           0000AA   819 G$IE_EX1$0$0 == 0x00aa
                           0000AA   820 _IE_EX1	=	0x00aa
                           0000AB   821 G$IE_ET1$0$0 == 0x00ab
                           0000AB   822 _IE_ET1	=	0x00ab
                           0000AC   823 G$IE_ES0$0$0 == 0x00ac
                           0000AC   824 _IE_ES0	=	0x00ac
                           0000AD   825 G$IE_ET2$0$0 == 0x00ad
                           0000AD   826 _IE_ET2	=	0x00ad
                           0000AE   827 G$IE_ESPI0$0$0 == 0x00ae
                           0000AE   828 _IE_ESPI0	=	0x00ae
                           0000AF   829 G$IE_EA$0$0 == 0x00af
                           0000AF   830 _IE_EA	=	0x00af
                           0000B8   831 G$IP_PX0$0$0 == 0x00b8
                           0000B8   832 _IP_PX0	=	0x00b8
                           0000B9   833 G$IP_PT0$0$0 == 0x00b9
                           0000B9   834 _IP_PT0	=	0x00b9
                           0000BA   835 G$IP_PX1$0$0 == 0x00ba
                           0000BA   836 _IP_PX1	=	0x00ba
                           0000BB   837 G$IP_PT1$0$0 == 0x00bb
                           0000BB   838 _IP_PT1	=	0x00bb
                           0000BC   839 G$IP_PS0$0$0 == 0x00bc
                           0000BC   840 _IP_PS0	=	0x00bc
                           0000BD   841 G$IP_PT2$0$0 == 0x00bd
                           0000BD   842 _IP_PT2	=	0x00bd
                           0000BE   843 G$IP_PSPI0$0$0 == 0x00be
                           0000BE   844 _IP_PSPI0	=	0x00be
                           000080   845 G$P0_B0$0$0 == 0x0080
                           000080   846 _P0_B0	=	0x0080
                           000081   847 G$P0_B1$0$0 == 0x0081
                           000081   848 _P0_B1	=	0x0081
                           000082   849 G$P0_B2$0$0 == 0x0082
                           000082   850 _P0_B2	=	0x0082
                           000083   851 G$P0_B3$0$0 == 0x0083
                           000083   852 _P0_B3	=	0x0083
                           000084   853 G$P0_B4$0$0 == 0x0084
                           000084   854 _P0_B4	=	0x0084
                           000085   855 G$P0_B5$0$0 == 0x0085
                           000085   856 _P0_B5	=	0x0085
                           000086   857 G$P0_B6$0$0 == 0x0086
                           000086   858 _P0_B6	=	0x0086
                           000087   859 G$P0_B7$0$0 == 0x0087
                           000087   860 _P0_B7	=	0x0087
                           000090   861 G$P1_B0$0$0 == 0x0090
                           000090   862 _P1_B0	=	0x0090
                           000091   863 G$P1_B1$0$0 == 0x0091
                           000091   864 _P1_B1	=	0x0091
                           000092   865 G$P1_B2$0$0 == 0x0092
                           000092   866 _P1_B2	=	0x0092
                           000093   867 G$P1_B3$0$0 == 0x0093
                           000093   868 _P1_B3	=	0x0093
                           000094   869 G$P1_B4$0$0 == 0x0094
                           000094   870 _P1_B4	=	0x0094
                           000095   871 G$P1_B5$0$0 == 0x0095
                           000095   872 _P1_B5	=	0x0095
                           000096   873 G$P1_B6$0$0 == 0x0096
                           000096   874 _P1_B6	=	0x0096
                           000097   875 G$P1_B7$0$0 == 0x0097
                           000097   876 _P1_B7	=	0x0097
                           0000A0   877 G$P2_B0$0$0 == 0x00a0
                           0000A0   878 _P2_B0	=	0x00a0
                           0000A1   879 G$P2_B1$0$0 == 0x00a1
                           0000A1   880 _P2_B1	=	0x00a1
                           0000A2   881 G$P2_B2$0$0 == 0x00a2
                           0000A2   882 _P2_B2	=	0x00a2
                           0000A3   883 G$P2_B3$0$0 == 0x00a3
                           0000A3   884 _P2_B3	=	0x00a3
                           0000B0   885 G$P3_B0$0$0 == 0x00b0
                           0000B0   886 _P3_B0	=	0x00b0
                           0000B1   887 G$P3_B1$0$0 == 0x00b1
                           0000B1   888 _P3_B1	=	0x00b1
                           0000D8   889 G$PCA0CN0_CCF0$0$0 == 0x00d8
                           0000D8   890 _PCA0CN0_CCF0	=	0x00d8
                           0000D9   891 G$PCA0CN0_CCF1$0$0 == 0x00d9
                           0000D9   892 _PCA0CN0_CCF1	=	0x00d9
                           0000DA   893 G$PCA0CN0_CCF2$0$0 == 0x00da
                           0000DA   894 _PCA0CN0_CCF2	=	0x00da
                           0000DE   895 G$PCA0CN0_CR$0$0 == 0x00de
                           0000DE   896 _PCA0CN0_CR	=	0x00de
                           0000DF   897 G$PCA0CN0_CF$0$0 == 0x00df
                           0000DF   898 _PCA0CN0_CF	=	0x00df
                           0000D0   899 G$PSW_PARITY$0$0 == 0x00d0
                           0000D0   900 _PSW_PARITY	=	0x00d0
                           0000D1   901 G$PSW_F1$0$0 == 0x00d1
                           0000D1   902 _PSW_F1	=	0x00d1
                           0000D2   903 G$PSW_OV$0$0 == 0x00d2
                           0000D2   904 _PSW_OV	=	0x00d2
                           0000D3   905 G$PSW_RS0$0$0 == 0x00d3
                           0000D3   906 _PSW_RS0	=	0x00d3
                           0000D4   907 G$PSW_RS1$0$0 == 0x00d4
                           0000D4   908 _PSW_RS1	=	0x00d4
                           0000D5   909 G$PSW_F0$0$0 == 0x00d5
                           0000D5   910 _PSW_F0	=	0x00d5
                           0000D6   911 G$PSW_AC$0$0 == 0x00d6
                           0000D6   912 _PSW_AC	=	0x00d6
                           0000D7   913 G$PSW_CY$0$0 == 0x00d7
                           0000D7   914 _PSW_CY	=	0x00d7
                           000098   915 G$SCON0_RI$0$0 == 0x0098
                           000098   916 _SCON0_RI	=	0x0098
                           000099   917 G$SCON0_TI$0$0 == 0x0099
                           000099   918 _SCON0_TI	=	0x0099
                           00009A   919 G$SCON0_RB8$0$0 == 0x009a
                           00009A   920 _SCON0_RB8	=	0x009a
                           00009B   921 G$SCON0_TB8$0$0 == 0x009b
                           00009B   922 _SCON0_TB8	=	0x009b
                           00009C   923 G$SCON0_REN$0$0 == 0x009c
                           00009C   924 _SCON0_REN	=	0x009c
                           00009D   925 G$SCON0_MCE$0$0 == 0x009d
                           00009D   926 _SCON0_MCE	=	0x009d
                           00009F   927 G$SCON0_SMODE$0$0 == 0x009f
                           00009F   928 _SCON0_SMODE	=	0x009f
                           0000C8   929 G$SCON1_RI$0$0 == 0x00c8
                           0000C8   930 _SCON1_RI	=	0x00c8
                           0000C9   931 G$SCON1_TI$0$0 == 0x00c9
                           0000C9   932 _SCON1_TI	=	0x00c9
                           0000CA   933 G$SCON1_RBX$0$0 == 0x00ca
                           0000CA   934 _SCON1_RBX	=	0x00ca
                           0000CB   935 G$SCON1_TBX$0$0 == 0x00cb
                           0000CB   936 _SCON1_TBX	=	0x00cb
                           0000CC   937 G$SCON1_REN$0$0 == 0x00cc
                           0000CC   938 _SCON1_REN	=	0x00cc
                           0000CE   939 G$SCON1_PERR$0$0 == 0x00ce
                           0000CE   940 _SCON1_PERR	=	0x00ce
                           0000CF   941 G$SCON1_OVR$0$0 == 0x00cf
                           0000CF   942 _SCON1_OVR	=	0x00cf
                           0000C0   943 G$SMB0CN0_SI$0$0 == 0x00c0
                           0000C0   944 _SMB0CN0_SI	=	0x00c0
                           0000C1   945 G$SMB0CN0_ACK$0$0 == 0x00c1
                           0000C1   946 _SMB0CN0_ACK	=	0x00c1
                           0000C2   947 G$SMB0CN0_ARBLOST$0$0 == 0x00c2
                           0000C2   948 _SMB0CN0_ARBLOST	=	0x00c2
                           0000C3   949 G$SMB0CN0_ACKRQ$0$0 == 0x00c3
                           0000C3   950 _SMB0CN0_ACKRQ	=	0x00c3
                           0000C4   951 G$SMB0CN0_STO$0$0 == 0x00c4
                           0000C4   952 _SMB0CN0_STO	=	0x00c4
                           0000C5   953 G$SMB0CN0_STA$0$0 == 0x00c5
                           0000C5   954 _SMB0CN0_STA	=	0x00c5
                           0000C6   955 G$SMB0CN0_TXMODE$0$0 == 0x00c6
                           0000C6   956 _SMB0CN0_TXMODE	=	0x00c6
                           0000C7   957 G$SMB0CN0_MASTER$0$0 == 0x00c7
                           0000C7   958 _SMB0CN0_MASTER	=	0x00c7
                           0000F8   959 G$SPI0CN0_SPIEN$0$0 == 0x00f8
                           0000F8   960 _SPI0CN0_SPIEN	=	0x00f8
                           0000F9   961 G$SPI0CN0_TXNF$0$0 == 0x00f9
                           0000F9   962 _SPI0CN0_TXNF	=	0x00f9
                           0000FA   963 G$SPI0CN0_NSSMD0$0$0 == 0x00fa
                           0000FA   964 _SPI0CN0_NSSMD0	=	0x00fa
                           0000FB   965 G$SPI0CN0_NSSMD1$0$0 == 0x00fb
                           0000FB   966 _SPI0CN0_NSSMD1	=	0x00fb
                           0000FC   967 G$SPI0CN0_RXOVRN$0$0 == 0x00fc
                           0000FC   968 _SPI0CN0_RXOVRN	=	0x00fc
                           0000FD   969 G$SPI0CN0_MODF$0$0 == 0x00fd
                           0000FD   970 _SPI0CN0_MODF	=	0x00fd
                           0000FE   971 G$SPI0CN0_WCOL$0$0 == 0x00fe
                           0000FE   972 _SPI0CN0_WCOL	=	0x00fe
                           0000FF   973 G$SPI0CN0_SPIF$0$0 == 0x00ff
                           0000FF   974 _SPI0CN0_SPIF	=	0x00ff
                           000088   975 G$TCON_IT0$0$0 == 0x0088
                           000088   976 _TCON_IT0	=	0x0088
                           000089   977 G$TCON_IE0$0$0 == 0x0089
                           000089   978 _TCON_IE0	=	0x0089
                           00008A   979 G$TCON_IT1$0$0 == 0x008a
                           00008A   980 _TCON_IT1	=	0x008a
                           00008B   981 G$TCON_IE1$0$0 == 0x008b
                           00008B   982 _TCON_IE1	=	0x008b
                           00008C   983 G$TCON_TR0$0$0 == 0x008c
                           00008C   984 _TCON_TR0	=	0x008c
                           00008D   985 G$TCON_TF0$0$0 == 0x008d
                           00008D   986 _TCON_TF0	=	0x008d
                           00008E   987 G$TCON_TR1$0$0 == 0x008e
                           00008E   988 _TCON_TR1	=	0x008e
                           00008F   989 G$TCON_TF1$0$0 == 0x008f
                           00008F   990 _TCON_TF1	=	0x008f
                           0000C8   991 G$TMR2CN0_T2XCLK0$0$0 == 0x00c8
                           0000C8   992 _TMR2CN0_T2XCLK0	=	0x00c8
                           0000C9   993 G$TMR2CN0_T2XCLK1$0$0 == 0x00c9
                           0000C9   994 _TMR2CN0_T2XCLK1	=	0x00c9
                           0000CA   995 G$TMR2CN0_TR2$0$0 == 0x00ca
                           0000CA   996 _TMR2CN0_TR2	=	0x00ca
                           0000CB   997 G$TMR2CN0_T2SPLIT$0$0 == 0x00cb
                           0000CB   998 _TMR2CN0_T2SPLIT	=	0x00cb
                           0000CC   999 G$TMR2CN0_TF2CEN$0$0 == 0x00cc
                           0000CC  1000 _TMR2CN0_TF2CEN	=	0x00cc
                           0000CD  1001 G$TMR2CN0_TF2LEN$0$0 == 0x00cd
                           0000CD  1002 _TMR2CN0_TF2LEN	=	0x00cd
                           0000CE  1003 G$TMR2CN0_TF2L$0$0 == 0x00ce
                           0000CE  1004 _TMR2CN0_TF2L	=	0x00ce
                           0000CF  1005 G$TMR2CN0_TF2H$0$0 == 0x00cf
                           0000CF  1006 _TMR2CN0_TF2H	=	0x00cf
                           000098  1007 G$TMR4CN0_T4XCLK0$0$0 == 0x0098
                           000098  1008 _TMR4CN0_T4XCLK0	=	0x0098
                           000099  1009 G$TMR4CN0_T4XCLK1$0$0 == 0x0099
                           000099  1010 _TMR4CN0_T4XCLK1	=	0x0099
                           00009A  1011 G$TMR4CN0_TR4$0$0 == 0x009a
                           00009A  1012 _TMR4CN0_TR4	=	0x009a
                           00009B  1013 G$TMR4CN0_T4SPLIT$0$0 == 0x009b
                           00009B  1014 _TMR4CN0_T4SPLIT	=	0x009b
                           00009C  1015 G$TMR4CN0_TF4CEN$0$0 == 0x009c
                           00009C  1016 _TMR4CN0_TF4CEN	=	0x009c
                           00009D  1017 G$TMR4CN0_TF4LEN$0$0 == 0x009d
                           00009D  1018 _TMR4CN0_TF4LEN	=	0x009d
                           00009E  1019 G$TMR4CN0_TF4L$0$0 == 0x009e
                           00009E  1020 _TMR4CN0_TF4L	=	0x009e
                           00009F  1021 G$TMR4CN0_TF4H$0$0 == 0x009f
                           00009F  1022 _TMR4CN0_TF4H	=	0x009f
                           0000D8  1023 G$UART1FCN1_RIE$0$0 == 0x00d8
                           0000D8  1024 _UART1FCN1_RIE	=	0x00d8
                           0000D9  1025 G$UART1FCN1_RXTO0$0$0 == 0x00d9
                           0000D9  1026 _UART1FCN1_RXTO0	=	0x00d9
                           0000DA  1027 G$UART1FCN1_RXTO1$0$0 == 0x00da
                           0000DA  1028 _UART1FCN1_RXTO1	=	0x00da
                           0000DB  1029 G$UART1FCN1_RFRQ$0$0 == 0x00db
                           0000DB  1030 _UART1FCN1_RFRQ	=	0x00db
                           0000DC  1031 G$UART1FCN1_TIE$0$0 == 0x00dc
                           0000DC  1032 _UART1FCN1_TIE	=	0x00dc
                           0000DD  1033 G$UART1FCN1_TXHOLD$0$0 == 0x00dd
                           0000DD  1034 _UART1FCN1_TXHOLD	=	0x00dd
                           0000DE  1035 G$UART1FCN1_TXNF$0$0 == 0x00de
                           0000DE  1036 _UART1FCN1_TXNF	=	0x00de
                           0000DF  1037 G$UART1FCN1_TFRQ$0$0 == 0x00df
                           0000DF  1038 _UART1FCN1_TFRQ	=	0x00df
                           000095  1039 G$U2F_BUTTON$0$0 == 0x0095
                           000095  1040 _U2F_BUTTON	=	0x0095
                           000096  1041 G$U2F_BUTTON_VAL$0$0 == 0x0096
                           000096  1042 _U2F_BUTTON_VAL	=	0x0096
                           000091  1043 G$U2F_RED$0$0 == 0x0091
                           000091  1044 _U2F_RED	=	0x0091
                           000090  1045 G$U2F_GREEN$0$0 == 0x0090
                           000090  1046 _U2F_GREEN	=	0x0090
                           000087  1047 G$U2F_BLUE$0$0 == 0x0087
                           000087  1048 _U2F_BLUE	=	0x0087
                                   1049 ;--------------------------------------------------------
                                   1050 ; overlayable register banks
                                   1051 ;--------------------------------------------------------
                                   1052 	.area REG_BANK_0	(REL,OVR,DATA)
      000000                       1053 	.ds 8
                                   1054 ;--------------------------------------------------------
                                   1055 ; internal ram data
                                   1056 ;--------------------------------------------------------
                                   1057 	.area DSEG    (DATA)
                                   1058 ;--------------------------------------------------------
                                   1059 ; overlayable items in internal ram 
                                   1060 ;--------------------------------------------------------
                                   1061 ;--------------------------------------------------------
                                   1062 ; indirectly addressable internal ram data
                                   1063 ;--------------------------------------------------------
                                   1064 	.area ISEG    (DATA)
                                   1065 ;--------------------------------------------------------
                                   1066 ; absolute internal ram data
                                   1067 ;--------------------------------------------------------
                                   1068 	.area IABS    (ABS,DATA)
                                   1069 	.area IABS    (ABS,DATA)
                                   1070 ;--------------------------------------------------------
                                   1071 ; bit data
                                   1072 ;--------------------------------------------------------
                                   1073 	.area BSEG    (BIT)
                                   1074 ;--------------------------------------------------------
                                   1075 ; paged external ram data
                                   1076 ;--------------------------------------------------------
                                   1077 	.area PSEG    (PAG,XDATA)
                                   1078 ;--------------------------------------------------------
                                   1079 ; external ram data
                                   1080 ;--------------------------------------------------------
                                   1081 	.area XSEG    (XDATA)
                           000000  1082 Fu2f_hid$hid_layer$0$0==.
      000000                       1083 _hid_layer:
      000000                       1084 	.ds 288
                           000120  1085 Fu2f_hid$CIDS$0$0==.
      000120                       1086 _CIDS:
      000120                       1087 	.ds 50
                           000152  1088 Fu2f_hid$_hid_pkt$0$0==.
      000152                       1089 __hid_pkt:
      000152                       1090 	.ds 64
                           000192  1091 Lu2f_hid.get_new_cid$base$1$142==.
      000192                       1092 _get_new_cid_base_1_142:
      000192                       1093 	.ds 4
                           000196  1094 Fu2f_hid$errbuf$0$0==.
      000196                       1095 _errbuf:
      000196                       1096 	.ds 64
                           0001D6  1097 Lu2f_hid.u2f_hid_request$last_seq$1$193==.
      0001D6                       1098 _u2f_hid_request_last_seq_1_193:
      0001D6                       1099 	.ds 1
                                   1100 ;--------------------------------------------------------
                                   1101 ; absolute external ram data
                                   1102 ;--------------------------------------------------------
                                   1103 	.area XABS    (ABS,XDATA)
                                   1104 ;--------------------------------------------------------
                                   1105 ; external initialized ram data
                                   1106 ;--------------------------------------------------------
                                   1107 	.area XISEG   (XDATA)
                           000000  1108 G$_hid_lockt$0$0==.
      000000                       1109 __hid_lockt::
      000000                       1110 	.ds 4
                           000004  1111 G$_hid_lock_cid$0$0==.
      000004                       1112 __hid_lock_cid::
      000004                       1113 	.ds 4
                           000008  1114 Fu2f_hid$CID_NUM$0$0==.
      000008                       1115 _CID_NUM:
      000008                       1116 	.ds 1
                           000009  1117 Fu2f_hid$_hid_offset$0$0==.
      000009                       1118 __hid_offset:
      000009                       1119 	.ds 1
                           00000A  1120 Fu2f_hid$_hid_seq$0$0==.
      00000A                       1121 __hid_seq:
      00000A                       1122 	.ds 2
                           00000C  1123 Fu2f_hid$_hid_in_session$0$0==.
      00000C                       1124 __hid_in_session:
      00000C                       1125 	.ds 1
                                   1126 	.area HOME    (CODE)
                                   1127 	.area GSINIT0 (CODE)
                                   1128 	.area GSINIT1 (CODE)
                                   1129 	.area GSINIT2 (CODE)
                                   1130 	.area GSINIT3 (CODE)
                                   1131 	.area GSINIT4 (CODE)
                                   1132 	.area GSINIT5 (CODE)
                                   1133 	.area GSINIT  (CODE)
                                   1134 	.area GSFINAL (CODE)
                                   1135 	.area CSEG    (CODE)
                                   1136 ;--------------------------------------------------------
                                   1137 ; global & static initialisations
                                   1138 ;--------------------------------------------------------
                                   1139 	.area HOME    (CODE)
                                   1140 	.area GSINIT  (CODE)
                                   1141 	.area GSFINAL (CODE)
                                   1142 	.area GSINIT  (CODE)
                                   1143 ;------------------------------------------------------------
                                   1144 ;Allocation info for local variables in function 'get_new_cid'
                                   1145 ;------------------------------------------------------------
                                   1146 ;i                         Allocated to registers r6 r7 
                                   1147 ;sloc0                     Allocated to stack - _bp +3
                                   1148 ;sloc1                     Allocated to stack - _bp +1
                                   1149 ;base                      Allocated with name '_get_new_cid_base_1_142'
                                   1150 ;------------------------------------------------------------
                           000000  1151 	Fu2f_hid$get_new_cid$0$0 ==.
                           000000  1152 	C$u2f_hid.c$201$1$142 ==.
                                   1153 ;	D:\Freelancer_projects\jan333\sdcc_project\src\u2f_hid.c:201: static uint32_t base = 0xcafebabe;
      000000 90r01r92         [24] 1154 	mov	dptr,#_get_new_cid_base_1_142
      000003 74 BE            [12] 1155 	mov	a,#0xbe
      000005 F0               [24] 1156 	movx	@dptr,a
      000006 74 BA            [12] 1157 	mov	a,#0xba
      000008 A3               [24] 1158 	inc	dptr
      000009 F0               [24] 1159 	movx	@dptr,a
      00000A 74 FE            [12] 1160 	mov	a,#0xfe
      00000C A3               [24] 1161 	inc	dptr
      00000D F0               [24] 1162 	movx	@dptr,a
      00000E 74 CA            [12] 1163 	mov	a,#0xca
      000010 A3               [24] 1164 	inc	dptr
      000011 F0               [24] 1165 	movx	@dptr,a
                                   1166 ;--------------------------------------------------------
                                   1167 ; Home
                                   1168 ;--------------------------------------------------------
                                   1169 	.area HOME    (CODE)
                                   1170 	.area HOME    (CODE)
                                   1171 ;--------------------------------------------------------
                                   1172 ; code
                                   1173 ;--------------------------------------------------------
                                   1174 	.area CSEG    (CODE)
                                   1175 ;------------------------------------------------------------
                                   1176 ;Allocation info for local variables in function 'u2f_hid_init'
                                   1177 ;------------------------------------------------------------
                           000000  1178 	G$u2f_hid_init$0$0 ==.
                           000000  1179 	C$u2f_hid.c$106$0$0 ==.
                                   1180 ;	D:\Freelancer_projects\jan333\sdcc_project\src\u2f_hid.c:106: void u2f_hid_init()
                                   1181 ;	-----------------------------------------
                                   1182 ;	 function u2f_hid_init
                                   1183 ;	-----------------------------------------
      000000                       1184 _u2f_hid_init:
                           000007  1185 	ar7 = 0x07
                           000006  1186 	ar6 = 0x06
                           000005  1187 	ar5 = 0x05
                           000004  1188 	ar4 = 0x04
                           000003  1189 	ar3 = 0x03
                           000002  1190 	ar2 = 0x02
                           000001  1191 	ar1 = 0x01
                           000000  1192 	ar0 = 0x00
                           000000  1193 	C$u2f_hid.c$108$1$126 ==.
                                   1194 ;	D:\Freelancer_projects\jan333\sdcc_project\src\u2f_hid.c:108: memset(CIDS, 0, sizeof(CIDS));
      000000 74 32            [12] 1195 	mov	a,#0x32
      000002 C0 E0            [24] 1196 	push	acc
      000004 E4               [12] 1197 	clr	a
      000005 C0 E0            [24] 1198 	push	acc
      000007 C0 E0            [24] 1199 	push	acc
      000009 90r01r20         [24] 1200 	mov	dptr,#_CIDS
      00000C 75 F0 00         [24] 1201 	mov	b,#0x00
      00000F 12r00r00         [24] 1202 	lcall	_memset
      000012 15 81            [12] 1203 	dec	sp
      000014 15 81            [12] 1204 	dec	sp
      000016 15 81            [12] 1205 	dec	sp
                           000018  1206 	C$u2f_hid.c$109$1$126 ==.
                                   1207 ;	D:\Freelancer_projects\jan333\sdcc_project\src\u2f_hid.c:109: memset(&hid_layer, 0, sizeof(hid_layer));
      000018 74 20            [12] 1208 	mov	a,#0x20
      00001A C0 E0            [24] 1209 	push	acc
      00001C 74 01            [12] 1210 	mov	a,#0x01
      00001E C0 E0            [24] 1211 	push	acc
      000020 E4               [12] 1212 	clr	a
      000021 C0 E0            [24] 1213 	push	acc
      000023 90r00r00         [24] 1214 	mov	dptr,#_hid_layer
      000026 75 F0 00         [24] 1215 	mov	b,#0x00
      000029 12r00r00         [24] 1216 	lcall	_memset
      00002C 15 81            [12] 1217 	dec	sp
      00002E 15 81            [12] 1218 	dec	sp
      000030 15 81            [12] 1219 	dec	sp
                           000032  1220 	C$u2f_hid.c$110$1$126 ==.
                                   1221 ;	D:\Freelancer_projects\jan333\sdcc_project\src\u2f_hid.c:110: CID_NUM = 0;
      000032 90r00r08         [24] 1222 	mov	dptr,#_CID_NUM
      000035 E4               [12] 1223 	clr	a
      000036 F0               [24] 1224 	movx	@dptr,a
                           000037  1225 	C$u2f_hid.c$111$1$126 ==.
                                   1226 ;	D:\Freelancer_projects\jan333\sdcc_project\src\u2f_hid.c:111: _hid_offset = 0;
      000037 90r00r09         [24] 1227 	mov	dptr,#__hid_offset
      00003A F0               [24] 1228 	movx	@dptr,a
                           00003B  1229 	C$u2f_hid.c$112$1$126 ==.
                                   1230 ;	D:\Freelancer_projects\jan333\sdcc_project\src\u2f_hid.c:112: _hid_seq = 0;
      00003B 90r00r0A         [24] 1231 	mov	dptr,#__hid_seq
      00003E F0               [24] 1232 	movx	@dptr,a
      00003F A3               [24] 1233 	inc	dptr
      000040 F0               [24] 1234 	movx	@dptr,a
                           000041  1235 	C$u2f_hid.c$113$1$126 ==.
                                   1236 ;	D:\Freelancer_projects\jan333\sdcc_project\src\u2f_hid.c:113: _hid_in_session = 0;
      000041 90r00r0C         [24] 1237 	mov	dptr,#__hid_in_session
      000044 F0               [24] 1238 	movx	@dptr,a
                           000045  1239 	C$u2f_hid.c$114$1$126 ==.
                           000045  1240 	XG$u2f_hid_init$0$0 ==.
      000045 22               [24] 1241 	ret
                                   1242 ;------------------------------------------------------------
                                   1243 ;Allocation info for local variables in function 'u2f_hid_set_len'
                                   1244 ;------------------------------------------------------------
                                   1245 ;len                       Allocated to registers r6 r7 
                                   1246 ;------------------------------------------------------------
                           000046  1247 	G$u2f_hid_set_len$0$0 ==.
                           000046  1248 	C$u2f_hid.c$116$1$126 ==.
                                   1249 ;	D:\Freelancer_projects\jan333\sdcc_project\src\u2f_hid.c:116: void u2f_hid_set_len(uint16_t len)
                                   1250 ;	-----------------------------------------
                                   1251 ;	 function u2f_hid_set_len
                                   1252 ;	-----------------------------------------
      000046                       1253 _u2f_hid_set_len:
      000046 AE 82            [24] 1254 	mov	r6,dpl
      000048 AF 83            [24] 1255 	mov	r7,dph
                           00004A  1256 	C$u2f_hid.c$118$1$128 ==.
                                   1257 ;	D:\Freelancer_projects\jan333\sdcc_project\src\u2f_hid.c:118: hid_layer.res_len = len;
      00004A 90r00r10         [24] 1258 	mov	dptr,#(_hid_layer + 0x0010)
      00004D EE               [12] 1259 	mov	a,r6
      00004E F0               [24] 1260 	movx	@dptr,a
      00004F EF               [12] 1261 	mov	a,r7
      000050 A3               [24] 1262 	inc	dptr
      000051 F0               [24] 1263 	movx	@dptr,a
                           000052  1264 	C$u2f_hid.c$119$1$128 ==.
                           000052  1265 	XG$u2f_hid_set_len$0$0 ==.
      000052 22               [24] 1266 	ret
                                   1267 ;------------------------------------------------------------
                                   1268 ;Allocation info for local variables in function 'u2f_hid_reset_packet'
                                   1269 ;------------------------------------------------------------
                           000053  1270 	Fu2f_hid$u2f_hid_reset_packet$0$0 ==.
                           000053  1271 	C$u2f_hid.c$122$1$128 ==.
                                   1272 ;	D:\Freelancer_projects\jan333\sdcc_project\src\u2f_hid.c:122: static void u2f_hid_reset_packet()
                                   1273 ;	-----------------------------------------
                                   1274 ;	 function u2f_hid_reset_packet
                                   1275 ;	-----------------------------------------
      000053                       1276 _u2f_hid_reset_packet:
                           000053  1277 	C$u2f_hid.c$124$1$129 ==.
                                   1278 ;	D:\Freelancer_projects\jan333\sdcc_project\src\u2f_hid.c:124: _hid_seq = 0;
      000053 90r00r0A         [24] 1279 	mov	dptr,#__hid_seq
      000056 E4               [12] 1280 	clr	a
      000057 F0               [24] 1281 	movx	@dptr,a
      000058 A3               [24] 1282 	inc	dptr
      000059 F0               [24] 1283 	movx	@dptr,a
                           00005A  1284 	C$u2f_hid.c$125$1$129 ==.
                                   1285 ;	D:\Freelancer_projects\jan333\sdcc_project\src\u2f_hid.c:125: _hid_offset = 0;
      00005A 90r00r09         [24] 1286 	mov	dptr,#__hid_offset
      00005D F0               [24] 1287 	movx	@dptr,a
                           00005E  1288 	C$u2f_hid.c$126$1$129 ==.
                                   1289 ;	D:\Freelancer_projects\jan333\sdcc_project\src\u2f_hid.c:126: _hid_in_session = 0;
      00005E 90r00r0C         [24] 1290 	mov	dptr,#__hid_in_session
      000061 F0               [24] 1291 	movx	@dptr,a
                           000062  1292 	C$u2f_hid.c$127$1$129 ==.
                                   1293 ;	D:\Freelancer_projects\jan333\sdcc_project\src\u2f_hid.c:127: memset(&hid_layer, 0, sizeof(hid_layer));
      000062 74 20            [12] 1294 	mov	a,#0x20
      000064 C0 E0            [24] 1295 	push	acc
      000066 74 01            [12] 1296 	mov	a,#0x01
      000068 C0 E0            [24] 1297 	push	acc
      00006A E4               [12] 1298 	clr	a
      00006B C0 E0            [24] 1299 	push	acc
      00006D 90r00r00         [24] 1300 	mov	dptr,#_hid_layer
      000070 75 F0 00         [24] 1301 	mov	b,#0x00
      000073 12r00r00         [24] 1302 	lcall	_memset
      000076 15 81            [12] 1303 	dec	sp
      000078 15 81            [12] 1304 	dec	sp
      00007A 15 81            [12] 1305 	dec	sp
                           00007C  1306 	C$u2f_hid.c$128$1$129 ==.
                                   1307 ;	D:\Freelancer_projects\jan333\sdcc_project\src\u2f_hid.c:128: memset(_hid_pkt, 0, HID_PACKET_SIZE);
      00007C 74 40            [12] 1308 	mov	a,#0x40
      00007E C0 E0            [24] 1309 	push	acc
      000080 E4               [12] 1310 	clr	a
      000081 C0 E0            [24] 1311 	push	acc
      000083 C0 E0            [24] 1312 	push	acc
      000085 90r01r52         [24] 1313 	mov	dptr,#__hid_pkt
      000088 75 F0 00         [24] 1314 	mov	b,#0x00
      00008B 12r00r00         [24] 1315 	lcall	_memset
      00008E 15 81            [12] 1316 	dec	sp
      000090 15 81            [12] 1317 	dec	sp
      000092 15 81            [12] 1318 	dec	sp
                           000094  1319 	C$u2f_hid.c$129$1$129 ==.
                           000094  1320 	XFu2f_hid$u2f_hid_reset_packet$0$0 ==.
      000094 22               [24] 1321 	ret
                                   1322 ;------------------------------------------------------------
                                   1323 ;Allocation info for local variables in function 'u2f_hid_flush'
                                   1324 ;------------------------------------------------------------
                           000095  1325 	G$u2f_hid_flush$0$0 ==.
                           000095  1326 	C$u2f_hid.c$132$1$129 ==.
                                   1327 ;	D:\Freelancer_projects\jan333\sdcc_project\src\u2f_hid.c:132: void u2f_hid_flush()
                                   1328 ;	-----------------------------------------
                                   1329 ;	 function u2f_hid_flush
                                   1330 ;	-----------------------------------------
      000095                       1331 _u2f_hid_flush:
                           000095  1332 	C$u2f_hid.c$134$1$130 ==.
                                   1333 ;	D:\Freelancer_projects\jan333\sdcc_project\src\u2f_hid.c:134: if (_hid_offset)
      000095 90r00r09         [24] 1334 	mov	dptr,#__hid_offset
      000098 E0               [24] 1335 	movx	a,@dptr
      000099 FF               [12] 1336 	mov	r7,a
      00009A 60 0F            [24] 1337 	jz	00102$
                           00009C  1338 	C$u2f_hid.c$136$2$131 ==.
                                   1339 ;	D:\Freelancer_projects\jan333\sdcc_project\src\u2f_hid.c:136: usb_write(_hid_pkt, HID_PACKET_SIZE);
      00009C 74 40            [12] 1340 	mov	a,#0x40
      00009E C0 E0            [24] 1341 	push	acc
      0000A0 90r01r52         [24] 1342 	mov	dptr,#__hid_pkt
      0000A3 75 F0 00         [24] 1343 	mov	b,#0x00
      0000A6 12r00r00         [24] 1344 	lcall	_usb_write
      0000A9 15 81            [12] 1345 	dec	sp
      0000AB                       1346 00102$:
                           0000AB  1347 	C$u2f_hid.c$138$1$130 ==.
                                   1348 ;	D:\Freelancer_projects\jan333\sdcc_project\src\u2f_hid.c:138: u2f_hid_reset_packet();
      0000AB 12r00r53         [24] 1349 	lcall	_u2f_hid_reset_packet
                           0000AE  1350 	C$u2f_hid.c$139$1$130 ==.
                           0000AE  1351 	XG$u2f_hid_flush$0$0 ==.
      0000AE 22               [24] 1352 	ret
                                   1353 ;------------------------------------------------------------
                                   1354 ;Allocation info for local variables in function 'u2f_hid_writeback'
                                   1355 ;------------------------------------------------------------
                                   1356 ;len                       Allocated to stack - _bp -4
                                   1357 ;payload                   Allocated to registers 
                                   1358 ;r                         Allocated to registers 
                                   1359 ;sloc0                     Allocated to stack - _bp +1
                                   1360 ;------------------------------------------------------------
                           0000AF  1361 	G$u2f_hid_writeback$0$0 ==.
                           0000AF  1362 	C$u2f_hid.c$143$1$130 ==.
                                   1363 ;	D:\Freelancer_projects\jan333\sdcc_project\src\u2f_hid.c:143: void u2f_hid_writeback(uint8_t * payload, uint16_t len)
                                   1364 ;	-----------------------------------------
                                   1365 ;	 function u2f_hid_writeback
                                   1366 ;	-----------------------------------------
      0000AF                       1367 _u2f_hid_writeback:
      0000AF C0*00            [24] 1368 	push	_bp
      0000B1 85 81*00         [24] 1369 	mov	_bp,sp
      0000B4 05 81            [12] 1370 	inc	sp
      0000B6 05 81            [12] 1371 	inc	sp
      0000B8 AD 82            [24] 1372 	mov	r5,dpl
      0000BA AE 83            [24] 1373 	mov	r6,dph
      0000BC AF F0            [24] 1374 	mov	r7,b
                           0000BE  1375 	C$u2f_hid.c$146$1$133 ==.
                                   1376 ;	D:\Freelancer_projects\jan333\sdcc_project\src\u2f_hid.c:146: struct u2f_hid_msg * r = (struct u2f_hid_msg *) _hid_pkt;
                           0000BE  1377 	C$u2f_hid.c$148$1$133 ==.
                                   1378 ;	D:\Freelancer_projects\jan333\sdcc_project\src\u2f_hid.c:148: _hid_in_session = 1;
      0000BE 90r00r0C         [24] 1379 	mov	dptr,#__hid_in_session
      0000C1 74 01            [12] 1380 	mov	a,#0x01
      0000C3 F0               [24] 1381 	movx	@dptr,a
                           0000C4  1382 	C$u2f_hid.c$151$3$135 ==.
                                   1383 ;	D:\Freelancer_projects\jan333\sdcc_project\src\u2f_hid.c:151: do
      0000C4 E5*00            [12] 1384 	mov	a,_bp
      0000C6 24 FC            [12] 1385 	add	a,#0xfc
      0000C8 F8               [12] 1386 	mov	r0,a
      0000C9 86 03            [24] 1387 	mov	ar3,@r0
      0000CB 08               [12] 1388 	inc	r0
      0000CC 86 04            [24] 1389 	mov	ar4,@r0
      0000CE                       1390 00112$:
                           0000CE  1391 	C$u2f_hid.c$154$2$134 ==.
                                   1392 ;	D:\Freelancer_projects\jan333\sdcc_project\src\u2f_hid.c:154: if (_hid_offset == 0)
      0000CE 90r00r09         [24] 1393 	mov	dptr,#__hid_offset
      0000D1 E0               [24] 1394 	movx	a,@dptr
      0000D2 60 03            [24] 1395 	jz	00135$
      0000D4 02r01r91         [24] 1396 	ljmp	00107$
      0000D7                       1397 00135$:
                           0000D7  1398 	C$u2f_hid.c$156$1$133 ==.
                                   1399 ;	D:\Freelancer_projects\jan333\sdcc_project\src\u2f_hid.c:156: r->cid = hid_layer.current_cid;
      0000D7 C0 05            [24] 1400 	push	ar5
      0000D9 C0 06            [24] 1401 	push	ar6
      0000DB C0 07            [24] 1402 	push	ar7
      0000DD 90r00r01         [24] 1403 	mov	dptr,#(_hid_layer + 0x0001)
      0000E0 E0               [24] 1404 	movx	a,@dptr
      0000E1 FA               [12] 1405 	mov	r2,a
      0000E2 A3               [24] 1406 	inc	dptr
      0000E3 E0               [24] 1407 	movx	a,@dptr
      0000E4 FD               [12] 1408 	mov	r5,a
      0000E5 A3               [24] 1409 	inc	dptr
      0000E6 E0               [24] 1410 	movx	a,@dptr
      0000E7 FE               [12] 1411 	mov	r6,a
      0000E8 A3               [24] 1412 	inc	dptr
      0000E9 E0               [24] 1413 	movx	a,@dptr
      0000EA FF               [12] 1414 	mov	r7,a
      0000EB 90r01r52         [24] 1415 	mov	dptr,#__hid_pkt
      0000EE EA               [12] 1416 	mov	a,r2
      0000EF F0               [24] 1417 	movx	@dptr,a
      0000F0 ED               [12] 1418 	mov	a,r5
      0000F1 A3               [24] 1419 	inc	dptr
      0000F2 F0               [24] 1420 	movx	@dptr,a
      0000F3 EE               [12] 1421 	mov	a,r6
      0000F4 A3               [24] 1422 	inc	dptr
      0000F5 F0               [24] 1423 	movx	@dptr,a
      0000F6 EF               [12] 1424 	mov	a,r7
      0000F7 A3               [24] 1425 	inc	dptr
      0000F8 F0               [24] 1426 	movx	@dptr,a
                           0000F9  1427 	C$u2f_hid.c$157$3$135 ==.
                                   1428 ;	D:\Freelancer_projects\jan333\sdcc_project\src\u2f_hid.c:157: if (!_hid_seq)
      0000F9 90r00r0A         [24] 1429 	mov	dptr,#__hid_seq
      0000FC A8*00            [24] 1430 	mov	r0,_bp
      0000FE 08               [12] 1431 	inc	r0
      0000FF E0               [24] 1432 	movx	a,@dptr
      000100 F6               [12] 1433 	mov	@r0,a
      000101 A3               [24] 1434 	inc	dptr
      000102 E0               [24] 1435 	movx	a,@dptr
      000103 08               [12] 1436 	inc	r0
      000104 F6               [12] 1437 	mov	@r0,a
      000105 D0 07            [24] 1438 	pop	ar7
      000107 D0 06            [24] 1439 	pop	ar6
      000109 D0 05            [24] 1440 	pop	ar5
      00010B 90r00r0A         [24] 1441 	mov	dptr,#__hid_seq
      00010E E0               [24] 1442 	movx	a,@dptr
      00010F F5 F0            [12] 1443 	mov	b,a
      000111 A3               [24] 1444 	inc	dptr
      000112 E0               [24] 1445 	movx	a,@dptr
      000113 45 F0            [12] 1446 	orl	a,b
      000115 70 3A            [24] 1447 	jnz	00104$
                           000117  1448 	C$u2f_hid.c$159$1$133 ==.
                                   1449 ;	D:\Freelancer_projects\jan333\sdcc_project\src\u2f_hid.c:159: r->pkt.init.cmd = hid_layer.current_cmd;
      000117 C0 05            [24] 1450 	push	ar5
      000119 C0 06            [24] 1451 	push	ar6
      00011B C0 07            [24] 1452 	push	ar7
      00011D 90r00r05         [24] 1453 	mov	dptr,#(_hid_layer + 0x0005)
      000120 E0               [24] 1454 	movx	a,@dptr
      000121 FA               [12] 1455 	mov	r2,a
      000122 90r01r56         [24] 1456 	mov	dptr,#(__hid_pkt + 0x0004)
      000125 75 F0 00         [24] 1457 	mov	b,#0x00
      000128 EA               [12] 1458 	mov	a,r2
      000129 12r00r00         [24] 1459 	lcall	__gptrput
                           00012C  1460 	C$u2f_hid.c$160$4$136 ==.
                                   1461 ;	D:\Freelancer_projects\jan333\sdcc_project\src\u2f_hid.c:160: U2FHID_SET_LEN(r, hid_layer.res_len);
      00012C 90r00r10         [24] 1462 	mov	dptr,#(_hid_layer + 0x0010)
      00012F E0               [24] 1463 	movx	a,@dptr
      000130 FA               [12] 1464 	mov	r2,a
      000131 A3               [24] 1465 	inc	dptr
      000132 E0               [24] 1466 	movx	a,@dptr
      000133 FF               [12] 1467 	mov	r7,a
      000134 90r01r57         [24] 1468 	mov	dptr,#(__hid_pkt + 0x0005)
      000137 75 F0 00         [24] 1469 	mov	b,#0x00
      00013A EA               [12] 1470 	mov	a,r2
      00013B 12r00r00         [24] 1471 	lcall	__gptrput
      00013E A3               [24] 1472 	inc	dptr
      00013F EF               [12] 1473 	mov	a,r7
      000140 12r00r00         [24] 1474 	lcall	__gptrput
                           000143  1475 	C$u2f_hid.c$161$4$136 ==.
                                   1476 ;	D:\Freelancer_projects\jan333\sdcc_project\src\u2f_hid.c:161: _hid_offset = 7;
      000143 90r00r09         [24] 1477 	mov	dptr,#__hid_offset
      000146 74 07            [12] 1478 	mov	a,#0x07
      000148 F0               [24] 1479 	movx	@dptr,a
      000149 D0 07            [24] 1480 	pop	ar7
      00014B D0 06            [24] 1481 	pop	ar6
      00014D D0 05            [24] 1482 	pop	ar5
      00014F 80 40            [24] 1483 	sjmp	00107$
      000151                       1484 00104$:
                           000151  1485 	C$u2f_hid.c$165$1$133 ==.
                                   1486 ;	D:\Freelancer_projects\jan333\sdcc_project\src\u2f_hid.c:165: r->pkt.cont.seq = (uint8_t)_hid_seq - 1;
      000151 C0 05            [24] 1487 	push	ar5
      000153 C0 06            [24] 1488 	push	ar6
      000155 C0 07            [24] 1489 	push	ar7
      000157 A8*00            [24] 1490 	mov	r0,_bp
      000159 08               [12] 1491 	inc	r0
      00015A 86 02            [24] 1492 	mov	ar2,@r0
      00015C 1A               [12] 1493 	dec	r2
      00015D 90r01r56         [24] 1494 	mov	dptr,#(__hid_pkt + 0x0004)
      000160 75 F0 00         [24] 1495 	mov	b,#0x00
      000163 EA               [12] 1496 	mov	a,r2
      000164 12r00r00         [24] 1497 	lcall	__gptrput
                           000167  1498 	C$u2f_hid.c$166$4$137 ==.
                                   1499 ;	D:\Freelancer_projects\jan333\sdcc_project\src\u2f_hid.c:166: _hid_offset = 5;
      000167 90r00r09         [24] 1500 	mov	dptr,#__hid_offset
      00016A 74 05            [12] 1501 	mov	a,#0x05
      00016C F0               [24] 1502 	movx	@dptr,a
                           00016D  1503 	C$u2f_hid.c$167$4$137 ==.
                                   1504 ;	D:\Freelancer_projects\jan333\sdcc_project\src\u2f_hid.c:167: if (_hid_seq-1 > 127)
      00016D 90r00r0A         [24] 1505 	mov	dptr,#__hid_seq
      000170 E0               [24] 1506 	movx	a,@dptr
      000171 FA               [12] 1507 	mov	r2,a
      000172 A3               [24] 1508 	inc	dptr
      000173 E0               [24] 1509 	movx	a,@dptr
      000174 FF               [12] 1510 	mov	r7,a
      000175 1A               [12] 1511 	dec	r2
      000176 BA FF 01         [24] 1512 	cjne	r2,#0xff,00137$
      000179 1F               [12] 1513 	dec	r7
      00017A                       1514 00137$:
      00017A C3               [12] 1515 	clr	c
      00017B 74 7F            [12] 1516 	mov	a,#0x7f
      00017D 9A               [12] 1517 	subb	a,r2
      00017E E4               [12] 1518 	clr	a
      00017F 9F               [12] 1519 	subb	a,r7
      000180 D0 07            [24] 1520 	pop	ar7
      000182 D0 06            [24] 1521 	pop	ar6
      000184 D0 05            [24] 1522 	pop	ar5
      000186 50 09            [24] 1523 	jnc	00107$
                           000188  1524 	C$u2f_hid.c$169$5$138 ==.
                                   1525 ;	D:\Freelancer_projects\jan333\sdcc_project\src\u2f_hid.c:169: set_app_error(ERROR_SEQ_EXCEEDED);
      000188 75 82 12         [24] 1526 	mov	dpl,#0x12
      00018B 12r00r00         [24] 1527 	lcall	_set_app_error
                           00018E  1528 	C$u2f_hid.c$170$5$138 ==.
                                   1529 ;	D:\Freelancer_projects\jan333\sdcc_project\src\u2f_hid.c:170: return;
      00018E 02r02r3E         [24] 1530 	ljmp	00115$
      000191                       1531 00107$:
                           000191  1532 	C$u2f_hid.c$175$1$133 ==.
                                   1533 ;	D:\Freelancer_projects\jan333\sdcc_project\src\u2f_hid.c:175: _hid_pkt[_hid_offset++] = *payload++;
      000191 C0 03            [24] 1534 	push	ar3
      000193 C0 04            [24] 1535 	push	ar4
      000195 90r00r09         [24] 1536 	mov	dptr,#__hid_offset
      000198 E0               [24] 1537 	movx	a,@dptr
      000199 FA               [12] 1538 	mov	r2,a
      00019A 04               [12] 1539 	inc	a
      00019B F0               [24] 1540 	movx	@dptr,a
      00019C EA               [12] 1541 	mov	a,r2
      00019D 24r52            [12] 1542 	add	a,#__hid_pkt
      00019F FA               [12] 1543 	mov	r2,a
      0001A0 E4               [12] 1544 	clr	a
      0001A1 34s01            [12] 1545 	addc	a,#(__hid_pkt >> 8)
      0001A3 FC               [12] 1546 	mov	r4,a
      0001A4 8D 82            [24] 1547 	mov	dpl,r5
      0001A6 8E 83            [24] 1548 	mov	dph,r6
      0001A8 8F F0            [24] 1549 	mov	b,r7
      0001AA 12r00r00         [24] 1550 	lcall	__gptrget
      0001AD FB               [12] 1551 	mov	r3,a
      0001AE A3               [24] 1552 	inc	dptr
      0001AF AD 82            [24] 1553 	mov	r5,dpl
      0001B1 AE 83            [24] 1554 	mov	r6,dph
      0001B3 8A 82            [24] 1555 	mov	dpl,r2
      0001B5 8C 83            [24] 1556 	mov	dph,r4
      0001B7 EB               [12] 1557 	mov	a,r3
      0001B8 F0               [24] 1558 	movx	@dptr,a
                           0001B9  1559 	C$u2f_hid.c$176$2$134 ==.
                                   1560 ;	D:\Freelancer_projects\jan333\sdcc_project\src\u2f_hid.c:176: hid_layer.bytes_written++;
      0001B9 90r00r0E         [24] 1561 	mov	dptr,#(_hid_layer + 0x000e)
      0001BC E0               [24] 1562 	movx	a,@dptr
      0001BD FB               [12] 1563 	mov	r3,a
      0001BE A3               [24] 1564 	inc	dptr
      0001BF E0               [24] 1565 	movx	a,@dptr
      0001C0 FC               [12] 1566 	mov	r4,a
      0001C1 0B               [12] 1567 	inc	r3
      0001C2 BB 00 01         [24] 1568 	cjne	r3,#0x00,00139$
      0001C5 0C               [12] 1569 	inc	r4
      0001C6                       1570 00139$:
      0001C6 90r00r0E         [24] 1571 	mov	dptr,#(_hid_layer + 0x000e)
      0001C9 EB               [12] 1572 	mov	a,r3
      0001CA F0               [24] 1573 	movx	@dptr,a
      0001CB EC               [12] 1574 	mov	a,r4
      0001CC A3               [24] 1575 	inc	dptr
      0001CD F0               [24] 1576 	movx	@dptr,a
                           0001CE  1577 	C$u2f_hid.c$177$2$134 ==.
                                   1578 ;	D:\Freelancer_projects\jan333\sdcc_project\src\u2f_hid.c:177: if (_hid_offset == HID_PACKET_SIZE)
      0001CE 90r00r09         [24] 1579 	mov	dptr,#__hid_offset
      0001D1 E0               [24] 1580 	movx	a,@dptr
      0001D2 FC               [12] 1581 	mov	r4,a
      0001D3 BC 40 02         [24] 1582 	cjne	r4,#0x40,00140$
      0001D6 80 06            [24] 1583 	sjmp	00141$
      0001D8                       1584 00140$:
      0001D8 D0 04            [24] 1585 	pop	ar4
      0001DA D0 03            [24] 1586 	pop	ar3
      0001DC 80 50            [24] 1587 	sjmp	00109$
      0001DE                       1588 00141$:
      0001DE D0 04            [24] 1589 	pop	ar4
      0001E0 D0 03            [24] 1590 	pop	ar3
                           0001E2  1591 	C$u2f_hid.c$179$3$139 ==.
                                   1592 ;	D:\Freelancer_projects\jan333\sdcc_project\src\u2f_hid.c:179: _hid_offset = 0;
      0001E2 90r00r09         [24] 1593 	mov	dptr,#__hid_offset
      0001E5 E4               [12] 1594 	clr	a
      0001E6 F0               [24] 1595 	movx	@dptr,a
                           0001E7  1596 	C$u2f_hid.c$180$3$139 ==.
                                   1597 ;	D:\Freelancer_projects\jan333\sdcc_project\src\u2f_hid.c:180: _hid_seq++;
      0001E7 90r00r0A         [24] 1598 	mov	dptr,#__hid_seq
      0001EA E0               [24] 1599 	movx	a,@dptr
      0001EB 24 01            [12] 1600 	add	a,#0x01
      0001ED F0               [24] 1601 	movx	@dptr,a
      0001EE A3               [24] 1602 	inc	dptr
      0001EF E0               [24] 1603 	movx	a,@dptr
      0001F0 34 00            [12] 1604 	addc	a,#0x00
      0001F2 F0               [24] 1605 	movx	@dptr,a
                           0001F3  1606 	C$u2f_hid.c$182$3$139 ==.
                                   1607 ;	D:\Freelancer_projects\jan333\sdcc_project\src\u2f_hid.c:182: usb_write(_hid_pkt, HID_PACKET_SIZE);
      0001F3 C0 07            [24] 1608 	push	ar7
      0001F5 C0 06            [24] 1609 	push	ar6
      0001F7 C0 05            [24] 1610 	push	ar5
      0001F9 C0 04            [24] 1611 	push	ar4
      0001FB C0 03            [24] 1612 	push	ar3
      0001FD 74 40            [12] 1613 	mov	a,#0x40
      0001FF C0 E0            [24] 1614 	push	acc
      000201 90r01r52         [24] 1615 	mov	dptr,#__hid_pkt
      000204 75 F0 00         [24] 1616 	mov	b,#0x00
      000207 12r00r00         [24] 1617 	lcall	_usb_write
      00020A 15 81            [12] 1618 	dec	sp
                           00020C  1619 	C$u2f_hid.c$183$3$139 ==.
                                   1620 ;	D:\Freelancer_projects\jan333\sdcc_project\src\u2f_hid.c:183: memset(_hid_pkt, 0, HID_PACKET_SIZE);
      00020C 74 40            [12] 1621 	mov	a,#0x40
      00020E C0 E0            [24] 1622 	push	acc
      000210 E4               [12] 1623 	clr	a
      000211 C0 E0            [24] 1624 	push	acc
      000213 C0 E0            [24] 1625 	push	acc
      000215 90r01r52         [24] 1626 	mov	dptr,#__hid_pkt
      000218 75 F0 00         [24] 1627 	mov	b,#0x00
      00021B 12r00r00         [24] 1628 	lcall	_memset
      00021E 15 81            [12] 1629 	dec	sp
      000220 15 81            [12] 1630 	dec	sp
      000222 15 81            [12] 1631 	dec	sp
      000224 D0 03            [24] 1632 	pop	ar3
      000226 D0 04            [24] 1633 	pop	ar4
      000228 D0 05            [24] 1634 	pop	ar5
      00022A D0 06            [24] 1635 	pop	ar6
      00022C D0 07            [24] 1636 	pop	ar7
      00022E                       1637 00109$:
                           00022E  1638 	C$u2f_hid.c$185$2$134 ==.
                                   1639 ;	D:\Freelancer_projects\jan333\sdcc_project\src\u2f_hid.c:185: if (!len) break;
      00022E EB               [12] 1640 	mov	a,r3
      00022F 4C               [12] 1641 	orl	a,r4
      000230 60 0C            [24] 1642 	jz	00115$
                           000232  1643 	C$u2f_hid.c$187$1$133 ==.
                                   1644 ;	D:\Freelancer_projects\jan333\sdcc_project\src\u2f_hid.c:187: while(--len);
      000232 1B               [12] 1645 	dec	r3
      000233 BB FF 01         [24] 1646 	cjne	r3,#0xff,00143$
      000236 1C               [12] 1647 	dec	r4
      000237                       1648 00143$:
      000237 EB               [12] 1649 	mov	a,r3
      000238 4C               [12] 1650 	orl	a,r4
      000239 60 03            [24] 1651 	jz	00144$
      00023B 02r00rCE         [24] 1652 	ljmp	00112$
      00023E                       1653 00144$:
      00023E                       1654 00115$:
      00023E 85*00 81         [24] 1655 	mov	sp,_bp
      000241 D0*00            [24] 1656 	pop	_bp
                           000243  1657 	C$u2f_hid.c$189$1$133 ==.
                           000243  1658 	XG$u2f_hid_writeback$0$0 ==.
      000243 22               [24] 1659 	ret
                                   1660 ;------------------------------------------------------------
                                   1661 ;Allocation info for local variables in function 'refresh_cid'
                                   1662 ;------------------------------------------------------------
                                   1663 ;c                         Allocated to registers r5 r6 r7 
                                   1664 ;------------------------------------------------------------
                           000244  1665 	Fu2f_hid$refresh_cid$0$0 ==.
                           000244  1666 	C$u2f_hid.c$193$1$133 ==.
                                   1667 ;	D:\Freelancer_projects\jan333\sdcc_project\src\u2f_hid.c:193: static void refresh_cid(struct CID* c)
                                   1668 ;	-----------------------------------------
                                   1669 ;	 function refresh_cid
                                   1670 ;	-----------------------------------------
      000244                       1671 _refresh_cid:
      000244 AD 82            [24] 1672 	mov	r5,dpl
      000246 AE 83            [24] 1673 	mov	r6,dph
      000248 AF F0            [24] 1674 	mov	r7,b
                           00024A  1675 	C$u2f_hid.c$195$1$141 ==.
                                   1676 ;	D:\Freelancer_projects\jan333\sdcc_project\src\u2f_hid.c:195: c->last_used = get_ms();
      00024A 74 04            [12] 1677 	mov	a,#0x04
      00024C 2D               [12] 1678 	add	a,r5
      00024D FD               [12] 1679 	mov	r5,a
      00024E E4               [12] 1680 	clr	a
      00024F 3E               [12] 1681 	addc	a,r6
      000250 FE               [12] 1682 	mov	r6,a
      000251 8D 82            [24] 1683 	mov	dpl,r5
      000253 8E 83            [24] 1684 	mov	dph,r6
      000255 8F F0            [24] 1685 	mov	b,r7
      000257 E5*00            [12] 1686 	mov	a,__MS_
      000259 12r00r00         [24] 1687 	lcall	__gptrput
      00025C A3               [24] 1688 	inc	dptr
      00025D E5*01            [12] 1689 	mov	a,(__MS_ + 1)
      00025F 12r00r00         [24] 1690 	lcall	__gptrput
      000262 A3               [24] 1691 	inc	dptr
      000263 E5*02            [12] 1692 	mov	a,(__MS_ + 2)
      000265 12r00r00         [24] 1693 	lcall	__gptrput
      000268 A3               [24] 1694 	inc	dptr
      000269 E5*03            [12] 1695 	mov	a,(__MS_ + 3)
      00026B 12r00r00         [24] 1696 	lcall	__gptrput
                           00026E  1697 	C$u2f_hid.c$196$1$141 ==.
                           00026E  1698 	XFu2f_hid$refresh_cid$0$0 ==.
      00026E 22               [24] 1699 	ret
                                   1700 ;------------------------------------------------------------
                                   1701 ;Allocation info for local variables in function 'get_new_cid'
                                   1702 ;------------------------------------------------------------
                                   1703 ;i                         Allocated to registers r6 r7 
                                   1704 ;sloc0                     Allocated to stack - _bp +3
                                   1705 ;sloc1                     Allocated to stack - _bp +1
                                   1706 ;base                      Allocated with name '_get_new_cid_base_1_142'
                                   1707 ;------------------------------------------------------------
                           00026F  1708 	Fu2f_hid$get_new_cid$0$0 ==.
                           00026F  1709 	C$u2f_hid.c$199$1$141 ==.
                                   1710 ;	D:\Freelancer_projects\jan333\sdcc_project\src\u2f_hid.c:199: static uint32_t get_new_cid()
                                   1711 ;	-----------------------------------------
                                   1712 ;	 function get_new_cid
                                   1713 ;	-----------------------------------------
      00026F                       1714 _get_new_cid:
      00026F C0*00            [24] 1715 	push	_bp
      000271 E5 81            [12] 1716 	mov	a,sp
      000273 F5*00            [12] 1717 	mov	_bp,a
      000275 24 04            [12] 1718 	add	a,#0x04
      000277 F5 81            [12] 1719 	mov	sp,a
                           000279  1720 	C$u2f_hid.c$203$1$142 ==.
                                   1721 ;	D:\Freelancer_projects\jan333\sdcc_project\src\u2f_hid.c:203: for(i = 0; i < CID_MAX-1; i++)
      000279 7E 00            [12] 1722 	mov	r6,#0x00
      00027B 7F 00            [12] 1723 	mov	r7,#0x00
      00027D 7C 00            [12] 1724 	mov	r4,#0x00
      00027F 7D 00            [12] 1725 	mov	r5,#0x00
      000281 7A 00            [12] 1726 	mov	r2,#0x00
      000283 7B 00            [12] 1727 	mov	r3,#0x00
      000285                       1728 00109$:
                           000285  1729 	C$u2f_hid.c$205$1$142 ==.
                                   1730 ;	D:\Freelancer_projects\jan333\sdcc_project\src\u2f_hid.c:205: if (!CIDS[i].busy)
      000285 C0 06            [24] 1731 	push	ar6
      000287 C0 07            [24] 1732 	push	ar7
      000289 EA               [12] 1733 	mov	a,r2
      00028A 24r20            [12] 1734 	add	a,#_CIDS
      00028C FE               [12] 1735 	mov	r6,a
      00028D EB               [12] 1736 	mov	a,r3
      00028E 34s01            [12] 1737 	addc	a,#(_CIDS >> 8)
      000290 FF               [12] 1738 	mov	r7,a
      000291 74 08            [12] 1739 	mov	a,#0x08
      000293 2E               [12] 1740 	add	a,r6
      000294 FE               [12] 1741 	mov	r6,a
      000295 E4               [12] 1742 	clr	a
      000296 3F               [12] 1743 	addc	a,r7
      000297 FF               [12] 1744 	mov	r7,a
      000298 8E 82            [24] 1745 	mov	dpl,r6
      00029A 8F 83            [24] 1746 	mov	dph,r7
      00029C E0               [24] 1747 	movx	a,@dptr
      00029D D0 07            [24] 1748 	pop	ar7
      00029F D0 06            [24] 1749 	pop	ar6
      0002A1 60 24            [24] 1750 	jz	00116$
                           0002A3  1751 	C$u2f_hid.c$203$1$142 ==.
                                   1752 ;	D:\Freelancer_projects\jan333\sdcc_project\src\u2f_hid.c:203: for(i = 0; i < CID_MAX-1; i++)
      0002A3 74 0A            [12] 1753 	mov	a,#0x0a
      0002A5 2A               [12] 1754 	add	a,r2
      0002A6 FA               [12] 1755 	mov	r2,a
      0002A7 E4               [12] 1756 	clr	a
      0002A8 3B               [12] 1757 	addc	a,r3
      0002A9 FB               [12] 1758 	mov	r3,a
      0002AA 0C               [12] 1759 	inc	r4
      0002AB BC 00 01         [24] 1760 	cjne	r4,#0x00,00132$
      0002AE 0D               [12] 1761 	inc	r5
      0002AF                       1762 00132$:
      0002AF 8C 06            [24] 1763 	mov	ar6,r4
      0002B1 8D 07            [24] 1764 	mov	ar7,r5
      0002B3 C3               [12] 1765 	clr	c
      0002B4 EC               [12] 1766 	mov	a,r4
      0002B5 94 04            [12] 1767 	subb	a,#0x04
      0002B7 ED               [12] 1768 	mov	a,r5
      0002B8 64 80            [12] 1769 	xrl	a,#0x80
      0002BA 94 80            [12] 1770 	subb	a,#0x80
      0002BC 40 C7            [24] 1771 	jc	00109$
                           0002BE  1772 	C$u2f_hid.c$210$1$142 ==.
                                   1773 ;	D:\Freelancer_projects\jan333\sdcc_project\src\u2f_hid.c:210: return 0;
      0002BE 90 00 00         [24] 1774 	mov	dptr,#(0x00&0x00ff)
      0002C1 E4               [12] 1775 	clr	a
      0002C2 F5 F0            [12] 1776 	mov	b,a
      0002C4 02r03r78         [24] 1777 	ljmp	00111$
                           0002C7  1778 	C$u2f_hid.c$213$1$142 ==.
                                   1779 ;	D:\Freelancer_projects\jan333\sdcc_project\src\u2f_hid.c:213: do
      0002C7                       1780 00116$:
      0002C7 C0 06            [24] 1781 	push	ar6
      0002C9 C0 07            [24] 1782 	push	ar7
      0002CB 90 00 0A         [24] 1783 	mov	dptr,#0x000a
      0002CE 12r00r00         [24] 1784 	lcall	__mulint
      0002D1 AE 82            [24] 1785 	mov	r6,dpl
      0002D3 AF 83            [24] 1786 	mov	r7,dph
      0002D5 15 81            [12] 1787 	dec	sp
      0002D7 15 81            [12] 1788 	dec	sp
      0002D9                       1789 00106$:
                           0002D9  1790 	C$u2f_hid.c$215$2$145 ==.
                                   1791 ;	D:\Freelancer_projects\jan333\sdcc_project\src\u2f_hid.c:215: CIDS[i].cid = base + CID_NUM++;
      0002D9 EE               [12] 1792 	mov	a,r6
      0002DA 24r20            [12] 1793 	add	a,#_CIDS
      0002DC FC               [12] 1794 	mov	r4,a
      0002DD EF               [12] 1795 	mov	a,r7
      0002DE 34s01            [12] 1796 	addc	a,#(_CIDS >> 8)
      0002E0 FD               [12] 1797 	mov	r5,a
      0002E1 90r00r08         [24] 1798 	mov	dptr,#_CID_NUM
      0002E4 E0               [24] 1799 	movx	a,@dptr
      0002E5 FB               [12] 1800 	mov	r3,a
      0002E6 04               [12] 1801 	inc	a
      0002E7 F0               [24] 1802 	movx	@dptr,a
      0002E8 C0 06            [24] 1803 	push	ar6
      0002EA C0 07            [24] 1804 	push	ar7
      0002EC 90r01r92         [24] 1805 	mov	dptr,#_get_new_cid_base_1_142
      0002EF A8*00            [24] 1806 	mov	r0,_bp
      0002F1 08               [12] 1807 	inc	r0
      0002F2 E0               [24] 1808 	movx	a,@dptr
      0002F3 F6               [12] 1809 	mov	@r0,a
      0002F4 A3               [24] 1810 	inc	dptr
      0002F5 E0               [24] 1811 	movx	a,@dptr
      0002F6 08               [12] 1812 	inc	r0
      0002F7 F6               [12] 1813 	mov	@r0,a
      0002F8 A3               [24] 1814 	inc	dptr
      0002F9 E0               [24] 1815 	movx	a,@dptr
      0002FA 08               [12] 1816 	inc	r0
      0002FB F6               [12] 1817 	mov	@r0,a
      0002FC A3               [24] 1818 	inc	dptr
      0002FD E0               [24] 1819 	movx	a,@dptr
      0002FE 08               [12] 1820 	inc	r0
      0002FF F6               [12] 1821 	mov	@r0,a
      000300 8B 02            [24] 1822 	mov	ar2,r3
      000302 7B 00            [12] 1823 	mov	r3,#0x00
      000304 7E 00            [12] 1824 	mov	r6,#0x00
      000306 7F 00            [12] 1825 	mov	r7,#0x00
      000308 A8*00            [24] 1826 	mov	r0,_bp
      00030A 08               [12] 1827 	inc	r0
      00030B EA               [12] 1828 	mov	a,r2
      00030C 26               [12] 1829 	add	a,@r0
      00030D FA               [12] 1830 	mov	r2,a
      00030E EB               [12] 1831 	mov	a,r3
      00030F 08               [12] 1832 	inc	r0
      000310 36               [12] 1833 	addc	a,@r0
      000311 FB               [12] 1834 	mov	r3,a
      000312 EE               [12] 1835 	mov	a,r6
      000313 08               [12] 1836 	inc	r0
      000314 36               [12] 1837 	addc	a,@r0
      000315 FE               [12] 1838 	mov	r6,a
      000316 EF               [12] 1839 	mov	a,r7
      000317 08               [12] 1840 	inc	r0
      000318 36               [12] 1841 	addc	a,@r0
      000319 FF               [12] 1842 	mov	r7,a
      00031A 8C 82            [24] 1843 	mov	dpl,r4
      00031C 8D 83            [24] 1844 	mov	dph,r5
      00031E EA               [12] 1845 	mov	a,r2
      00031F F0               [24] 1846 	movx	@dptr,a
      000320 EB               [12] 1847 	mov	a,r3
      000321 A3               [24] 1848 	inc	dptr
      000322 F0               [24] 1849 	movx	@dptr,a
      000323 EE               [12] 1850 	mov	a,r6
      000324 A3               [24] 1851 	inc	dptr
      000325 F0               [24] 1852 	movx	@dptr,a
      000326 EF               [12] 1853 	mov	a,r7
      000327 A3               [24] 1854 	inc	dptr
      000328 F0               [24] 1855 	movx	@dptr,a
                           000329  1856 	C$u2f_hid.c$216$1$142 ==.
                                   1857 ;	D:\Freelancer_projects\jan333\sdcc_project\src\u2f_hid.c:216: }while(CIDS[i].cid == 0 || CIDS[i].cid == U2FHID_BROADCAST);
      000329 EA               [12] 1858 	mov	a,r2
      00032A 4B               [12] 1859 	orl	a,r3
      00032B 4E               [12] 1860 	orl	a,r6
      00032C 4F               [12] 1861 	orl	a,r7
      00032D D0 07            [24] 1862 	pop	ar7
      00032F D0 06            [24] 1863 	pop	ar6
      000331 60 A6            [24] 1864 	jz	00106$
      000333 8C 82            [24] 1865 	mov	dpl,r4
      000335 8D 83            [24] 1866 	mov	dph,r5
      000337 E0               [24] 1867 	movx	a,@dptr
      000338 FC               [12] 1868 	mov	r4,a
      000339 A3               [24] 1869 	inc	dptr
      00033A E0               [24] 1870 	movx	a,@dptr
      00033B FD               [12] 1871 	mov	r5,a
      00033C A3               [24] 1872 	inc	dptr
      00033D E0               [24] 1873 	movx	a,@dptr
      00033E FB               [12] 1874 	mov	r3,a
      00033F A3               [24] 1875 	inc	dptr
      000340 E0               [24] 1876 	movx	a,@dptr
      000341 FA               [12] 1877 	mov	r2,a
      000342 BC FF 0B         [24] 1878 	cjne	r4,#0xff,00135$
      000345 BD FF 08         [24] 1879 	cjne	r5,#0xff,00135$
      000348 BB FF 05         [24] 1880 	cjne	r3,#0xff,00135$
      00034B BA FF 02         [24] 1881 	cjne	r2,#0xff,00135$
      00034E 80 89            [24] 1882 	sjmp	00106$
      000350                       1883 00135$:
                           000350  1884 	C$u2f_hid.c$218$1$142 ==.
                                   1885 ;	D:\Freelancer_projects\jan333\sdcc_project\src\u2f_hid.c:218: CIDS[i].busy = 0;
      000350 EE               [12] 1886 	mov	a,r6
      000351 24r20            [12] 1887 	add	a,#_CIDS
      000353 FE               [12] 1888 	mov	r6,a
      000354 EF               [12] 1889 	mov	a,r7
      000355 34s01            [12] 1890 	addc	a,#(_CIDS >> 8)
      000357 FF               [12] 1891 	mov	r7,a
      000358 74 08            [12] 1892 	mov	a,#0x08
      00035A 2E               [12] 1893 	add	a,r6
      00035B F5 82            [12] 1894 	mov	dpl,a
      00035D E4               [12] 1895 	clr	a
      00035E 3F               [12] 1896 	addc	a,r7
      00035F F5 83            [12] 1897 	mov	dph,a
      000361 E4               [12] 1898 	clr	a
      000362 F0               [24] 1899 	movx	@dptr,a
                           000363  1900 	C$u2f_hid.c$220$1$142 ==.
                                   1901 ;	D:\Freelancer_projects\jan333\sdcc_project\src\u2f_hid.c:220: return CIDS[i].cid;
      000363 8E 82            [24] 1902 	mov	dpl,r6
      000365 8F 83            [24] 1903 	mov	dph,r7
      000367 E0               [24] 1904 	movx	a,@dptr
      000368 FE               [12] 1905 	mov	r6,a
      000369 A3               [24] 1906 	inc	dptr
      00036A E0               [24] 1907 	movx	a,@dptr
      00036B FF               [12] 1908 	mov	r7,a
      00036C A3               [24] 1909 	inc	dptr
      00036D E0               [24] 1910 	movx	a,@dptr
      00036E FD               [12] 1911 	mov	r5,a
      00036F A3               [24] 1912 	inc	dptr
      000370 E0               [24] 1913 	movx	a,@dptr
      000371 FC               [12] 1914 	mov	r4,a
      000372 8E 82            [24] 1915 	mov	dpl,r6
      000374 8F 83            [24] 1916 	mov	dph,r7
      000376 8D F0            [24] 1917 	mov	b,r5
      000378                       1918 00111$:
      000378 85*00 81         [24] 1919 	mov	sp,_bp
      00037B D0*00            [24] 1920 	pop	_bp
                           00037D  1921 	C$u2f_hid.c$221$1$142 ==.
                           00037D  1922 	XFu2f_hid$get_new_cid$0$0 ==.
      00037D 22               [24] 1923 	ret
                                   1924 ;------------------------------------------------------------
                                   1925 ;Allocation info for local variables in function 'add_new_cid'
                                   1926 ;------------------------------------------------------------
                                   1927 ;cid                       Allocated to registers r4 r5 r6 r7 
                                   1928 ;i                         Allocated to registers r2 r3 
                                   1929 ;sloc0                     Allocated to stack - _bp +1
                                   1930 ;sloc1                     Allocated to stack - _bp +3
                                   1931 ;------------------------------------------------------------
                           00037E  1932 	Fu2f_hid$add_new_cid$0$0 ==.
                           00037E  1933 	C$u2f_hid.c$223$1$142 ==.
                                   1934 ;	D:\Freelancer_projects\jan333\sdcc_project\src\u2f_hid.c:223: static int8_t add_new_cid(uint32_t cid)
                                   1935 ;	-----------------------------------------
                                   1936 ;	 function add_new_cid
                                   1937 ;	-----------------------------------------
      00037E                       1938 _add_new_cid:
      00037E C0*00            [24] 1939 	push	_bp
      000380 85 81*00         [24] 1940 	mov	_bp,sp
      000383 AC 82            [24] 1941 	mov	r4,dpl
      000385 AD 83            [24] 1942 	mov	r5,dph
      000387 AE F0            [24] 1943 	mov	r6,b
      000389 FF               [12] 1944 	mov	r7,a
      00038A E5 81            [12] 1945 	mov	a,sp
      00038C 24 04            [12] 1946 	add	a,#0x04
      00038E F5 81            [12] 1947 	mov	sp,a
                           000390  1948 	C$u2f_hid.c$226$2$148 ==.
                                   1949 ;	D:\Freelancer_projects\jan333\sdcc_project\src\u2f_hid.c:226: for(i = 0; i < CID_MAX-1; i++)
      000390 E4               [12] 1950 	clr	a
      000391 FA               [12] 1951 	mov	r2,a
      000392 FB               [12] 1952 	mov	r3,a
      000393 E5*00            [12] 1953 	mov	a,_bp
      000395 24 03            [12] 1954 	add	a,#0x03
      000397 F8               [12] 1955 	mov	r0,a
      000398 E4               [12] 1956 	clr	a
      000399 F6               [12] 1957 	mov	@r0,a
      00039A 08               [12] 1958 	inc	r0
      00039B F6               [12] 1959 	mov	@r0,a
      00039C                       1960 00104$:
                           00039C  1961 	C$u2f_hid.c$228$1$147 ==.
                                   1962 ;	D:\Freelancer_projects\jan333\sdcc_project\src\u2f_hid.c:228: if (!CIDS[i].busy)
      00039C C0 04            [24] 1963 	push	ar4
      00039E C0 05            [24] 1964 	push	ar5
      0003A0 C0 06            [24] 1965 	push	ar6
      0003A2 C0 07            [24] 1966 	push	ar7
      0003A4 E5*00            [12] 1967 	mov	a,_bp
      0003A6 24 03            [12] 1968 	add	a,#0x03
      0003A8 F8               [12] 1969 	mov	r0,a
      0003A9 A9*00            [24] 1970 	mov	r1,_bp
      0003AB 09               [12] 1971 	inc	r1
      0003AC E6               [12] 1972 	mov	a,@r0
      0003AD 24r20            [12] 1973 	add	a,#_CIDS
      0003AF F7               [12] 1974 	mov	@r1,a
      0003B0 08               [12] 1975 	inc	r0
      0003B1 E6               [12] 1976 	mov	a,@r0
      0003B2 34s01            [12] 1977 	addc	a,#(_CIDS >> 8)
      0003B4 09               [12] 1978 	inc	r1
      0003B5 F7               [12] 1979 	mov	@r1,a
      0003B6 A8*00            [24] 1980 	mov	r0,_bp
      0003B8 08               [12] 1981 	inc	r0
      0003B9 74 08            [12] 1982 	mov	a,#0x08
      0003BB 26               [12] 1983 	add	a,@r0
      0003BC FE               [12] 1984 	mov	r6,a
      0003BD E4               [12] 1985 	clr	a
      0003BE 08               [12] 1986 	inc	r0
      0003BF 36               [12] 1987 	addc	a,@r0
      0003C0 FF               [12] 1988 	mov	r7,a
      0003C1 8E 82            [24] 1989 	mov	dpl,r6
      0003C3 8F 83            [24] 1990 	mov	dph,r7
      0003C5 E0               [24] 1991 	movx	a,@dptr
      0003C6 D0 07            [24] 1992 	pop	ar7
      0003C8 D0 06            [24] 1993 	pop	ar6
      0003CA D0 05            [24] 1994 	pop	ar5
      0003CC D0 04            [24] 1995 	pop	ar4
      0003CE 70 18            [24] 1996 	jnz	00105$
                           0003D0  1997 	C$u2f_hid.c$230$3$149 ==.
                                   1998 ;	D:\Freelancer_projects\jan333\sdcc_project\src\u2f_hid.c:230: CIDS[i].cid = cid;
      0003D0 A8*00            [24] 1999 	mov	r0,_bp
      0003D2 08               [12] 2000 	inc	r0
      0003D3 86 82            [24] 2001 	mov	dpl,@r0
      0003D5 08               [12] 2002 	inc	r0
      0003D6 86 83            [24] 2003 	mov	dph,@r0
      0003D8 EC               [12] 2004 	mov	a,r4
      0003D9 F0               [24] 2005 	movx	@dptr,a
      0003DA ED               [12] 2006 	mov	a,r5
      0003DB A3               [24] 2007 	inc	dptr
      0003DC F0               [24] 2008 	movx	@dptr,a
      0003DD EE               [12] 2009 	mov	a,r6
      0003DE A3               [24] 2010 	inc	dptr
      0003DF F0               [24] 2011 	movx	@dptr,a
      0003E0 EF               [12] 2012 	mov	a,r7
      0003E1 A3               [24] 2013 	inc	dptr
      0003E2 F0               [24] 2014 	movx	@dptr,a
                           0003E3  2015 	C$u2f_hid.c$231$3$149 ==.
                                   2016 ;	D:\Freelancer_projects\jan333\sdcc_project\src\u2f_hid.c:231: return 0;
      0003E3 75 82 00         [24] 2017 	mov	dpl,#0x00
      0003E6 80 20            [24] 2018 	sjmp	00106$
      0003E8                       2019 00105$:
                           0003E8  2020 	C$u2f_hid.c$226$1$147 ==.
                                   2021 ;	D:\Freelancer_projects\jan333\sdcc_project\src\u2f_hid.c:226: for(i = 0; i < CID_MAX-1; i++)
      0003E8 E5*00            [12] 2022 	mov	a,_bp
      0003EA 24 03            [12] 2023 	add	a,#0x03
      0003EC F8               [12] 2024 	mov	r0,a
      0003ED 74 0A            [12] 2025 	mov	a,#0x0a
      0003EF 26               [12] 2026 	add	a,@r0
      0003F0 F6               [12] 2027 	mov	@r0,a
      0003F1 E4               [12] 2028 	clr	a
      0003F2 08               [12] 2029 	inc	r0
      0003F3 36               [12] 2030 	addc	a,@r0
      0003F4 F6               [12] 2031 	mov	@r0,a
      0003F5 0A               [12] 2032 	inc	r2
      0003F6 BA 00 01         [24] 2033 	cjne	r2,#0x00,00118$
      0003F9 0B               [12] 2034 	inc	r3
      0003FA                       2035 00118$:
      0003FA C3               [12] 2036 	clr	c
      0003FB EA               [12] 2037 	mov	a,r2
      0003FC 94 04            [12] 2038 	subb	a,#0x04
      0003FE EB               [12] 2039 	mov	a,r3
      0003FF 64 80            [12] 2040 	xrl	a,#0x80
      000401 94 80            [12] 2041 	subb	a,#0x80
      000403 40 97            [24] 2042 	jc	00104$
                           000405  2043 	C$u2f_hid.c$234$1$147 ==.
                                   2044 ;	D:\Freelancer_projects\jan333\sdcc_project\src\u2f_hid.c:234: return -1;
      000405 75 82 FF         [24] 2045 	mov	dpl,#0xff
      000408                       2046 00106$:
      000408 85*00 81         [24] 2047 	mov	sp,_bp
      00040B D0*00            [24] 2048 	pop	_bp
                           00040D  2049 	C$u2f_hid.c$235$1$147 ==.
                           00040D  2050 	XFu2f_hid$add_new_cid$0$0 ==.
      00040D 22               [24] 2051 	ret
                                   2052 ;------------------------------------------------------------
                                   2053 ;Allocation info for local variables in function 'get_cid'
                                   2054 ;------------------------------------------------------------
                                   2055 ;cid                       Allocated to registers r7 r6 r5 r4 
                                   2056 ;i                         Allocated to registers r3 
                                   2057 ;sloc0                     Allocated to stack - _bp +1
                                   2058 ;sloc1                     Allocated to stack - _bp +3
                                   2059 ;------------------------------------------------------------
                           00040E  2060 	Fu2f_hid$get_cid$0$0 ==.
                           00040E  2061 	C$u2f_hid.c$237$1$147 ==.
                                   2062 ;	D:\Freelancer_projects\jan333\sdcc_project\src\u2f_hid.c:237: static struct CID* get_cid(uint32_t cid)
                                   2063 ;	-----------------------------------------
                                   2064 ;	 function get_cid
                                   2065 ;	-----------------------------------------
      00040E                       2066 _get_cid:
      00040E C0*00            [24] 2067 	push	_bp
      000410 85 81*00         [24] 2068 	mov	_bp,sp
      000413 AF 82            [24] 2069 	mov	r7,dpl
      000415 AE 83            [24] 2070 	mov	r6,dph
      000417 AD F0            [24] 2071 	mov	r5,b
      000419 FC               [12] 2072 	mov	r4,a
      00041A E5 81            [12] 2073 	mov	a,sp
      00041C 24 06            [12] 2074 	add	a,#0x06
      00041E F5 81            [12] 2075 	mov	sp,a
                           000420  2076 	C$u2f_hid.c$240$2$152 ==.
                                   2077 ;	D:\Freelancer_projects\jan333\sdcc_project\src\u2f_hid.c:240: for(i = 0; i < CID_MAX; i++)
      000420 7B 00            [12] 2078 	mov	r3,#0x00
      000422                       2079 00104$:
                           000422  2080 	C$u2f_hid.c$242$2$152 ==.
                                   2081 ;	D:\Freelancer_projects\jan333\sdcc_project\src\u2f_hid.c:242: if (CIDS[i].cid == cid)
      000422 A8*00            [24] 2082 	mov	r0,_bp
      000424 08               [12] 2083 	inc	r0
      000425 EB               [12] 2084 	mov	a,r3
      000426 75 F0 0A         [24] 2085 	mov	b,#0x0a
      000429 A4               [48] 2086 	mul	ab
      00042A F6               [12] 2087 	mov	@r0,a
      00042B 08               [12] 2088 	inc	r0
      00042C A6 F0            [24] 2089 	mov	@r0,b
      00042E A8*00            [24] 2090 	mov	r0,_bp
      000430 08               [12] 2091 	inc	r0
      000431 E6               [12] 2092 	mov	a,@r0
      000432 24r20            [12] 2093 	add	a,#_CIDS
      000434 F5 82            [12] 2094 	mov	dpl,a
      000436 08               [12] 2095 	inc	r0
      000437 E6               [12] 2096 	mov	a,@r0
      000438 34s01            [12] 2097 	addc	a,#(_CIDS >> 8)
      00043A F5 83            [12] 2098 	mov	dph,a
      00043C C0 03            [24] 2099 	push	ar3
      00043E E5*00            [12] 2100 	mov	a,_bp
      000440 24 03            [12] 2101 	add	a,#0x03
      000442 F8               [12] 2102 	mov	r0,a
      000443 E0               [24] 2103 	movx	a,@dptr
      000444 F6               [12] 2104 	mov	@r0,a
      000445 A3               [24] 2105 	inc	dptr
      000446 E0               [24] 2106 	movx	a,@dptr
      000447 08               [12] 2107 	inc	r0
      000448 F6               [12] 2108 	mov	@r0,a
      000449 A3               [24] 2109 	inc	dptr
      00044A E0               [24] 2110 	movx	a,@dptr
      00044B 08               [12] 2111 	inc	r0
      00044C F6               [12] 2112 	mov	@r0,a
      00044D A3               [24] 2113 	inc	dptr
      00044E E0               [24] 2114 	movx	a,@dptr
      00044F 08               [12] 2115 	inc	r0
      000450 F6               [12] 2116 	mov	@r0,a
      000451 E5*00            [12] 2117 	mov	a,_bp
      000453 24 03            [12] 2118 	add	a,#0x03
      000455 F8               [12] 2119 	mov	r0,a
      000456 E6               [12] 2120 	mov	a,@r0
      000457 B5 07 11         [24] 2121 	cjne	a,ar7,00117$
      00045A 08               [12] 2122 	inc	r0
      00045B E6               [12] 2123 	mov	a,@r0
      00045C B5 06 0C         [24] 2124 	cjne	a,ar6,00117$
      00045F 08               [12] 2125 	inc	r0
      000460 E6               [12] 2126 	mov	a,@r0
      000461 B5 05 07         [24] 2127 	cjne	a,ar5,00117$
      000464 08               [12] 2128 	inc	r0
      000465 E6               [12] 2129 	mov	a,@r0
      000466 B5 04 02         [24] 2130 	cjne	a,ar4,00117$
      000469 80 04            [24] 2131 	sjmp	00118$
      00046B                       2132 00117$:
      00046B D0 03            [24] 2133 	pop	ar3
      00046D 80 18            [24] 2134 	sjmp	00105$
      00046F                       2135 00118$:
      00046F D0 03            [24] 2136 	pop	ar3
                           000471  2137 	C$u2f_hid.c$244$3$153 ==.
                                   2138 ;	D:\Freelancer_projects\jan333\sdcc_project\src\u2f_hid.c:244: return CIDS+i;
      000471 A8*00            [24] 2139 	mov	r0,_bp
      000473 08               [12] 2140 	inc	r0
      000474 E6               [12] 2141 	mov	a,@r0
      000475 24r20            [12] 2142 	add	a,#_CIDS
      000477 FD               [12] 2143 	mov	r5,a
      000478 08               [12] 2144 	inc	r0
      000479 E6               [12] 2145 	mov	a,@r0
      00047A 34s01            [12] 2146 	addc	a,#(_CIDS >> 8)
      00047C FE               [12] 2147 	mov	r6,a
      00047D 7C 00            [12] 2148 	mov	r4,#0x00
      00047F 8D 82            [24] 2149 	mov	dpl,r5
      000481 8E 83            [24] 2150 	mov	dph,r6
      000483 8C F0            [24] 2151 	mov	b,r4
      000485 80 0C            [24] 2152 	sjmp	00106$
      000487                       2153 00105$:
                           000487  2154 	C$u2f_hid.c$240$1$151 ==.
                                   2155 ;	D:\Freelancer_projects\jan333\sdcc_project\src\u2f_hid.c:240: for(i = 0; i < CID_MAX; i++)
      000487 0B               [12] 2156 	inc	r3
      000488 BB 05 00         [24] 2157 	cjne	r3,#0x05,00119$
      00048B                       2158 00119$:
      00048B 40 95            [24] 2159 	jc	00104$
                           00048D  2160 	C$u2f_hid.c$247$1$151 ==.
                                   2161 ;	D:\Freelancer_projects\jan333\sdcc_project\src\u2f_hid.c:247: return NULL;
      00048D 90 00 00         [24] 2162 	mov	dptr,#0x0000
      000490 75 F0 00         [24] 2163 	mov	b,#0x00
      000493                       2164 00106$:
      000493 85*00 81         [24] 2165 	mov	sp,_bp
      000496 D0*00            [24] 2166 	pop	_bp
                           000498  2167 	C$u2f_hid.c$248$1$151 ==.
                           000498  2168 	XFu2f_hid$get_cid$0$0 ==.
      000498 22               [24] 2169 	ret
                                   2170 ;------------------------------------------------------------
                                   2171 ;Allocation info for local variables in function 'del_cid'
                                   2172 ;------------------------------------------------------------
                                   2173 ;cid                       Allocated to stack - _bp +1
                                   2174 ;i                         Allocated to registers r3 
                                   2175 ;sloc0                     Allocated to stack - _bp +5
                                   2176 ;sloc1                     Allocated to stack - _bp +8
                                   2177 ;------------------------------------------------------------
                           000499  2178 	Fu2f_hid$del_cid$0$0 ==.
                           000499  2179 	C$u2f_hid.c$249$1$151 ==.
                                   2180 ;	D:\Freelancer_projects\jan333\sdcc_project\src\u2f_hid.c:249: static void del_cid(uint32_t cid)
                                   2181 ;	-----------------------------------------
                                   2182 ;	 function del_cid
                                   2183 ;	-----------------------------------------
      000499                       2184 _del_cid:
      000499 C0*00            [24] 2185 	push	_bp
      00049B 85 81*00         [24] 2186 	mov	_bp,sp
      00049E C0 82            [24] 2187 	push	dpl
      0004A0 C0 83            [24] 2188 	push	dph
      0004A2 C0 F0            [24] 2189 	push	b
      0004A4 C0 E0            [24] 2190 	push	acc
      0004A6 05 81            [12] 2191 	inc	sp
      0004A8 05 81            [12] 2192 	inc	sp
                           0004AA  2193 	C$u2f_hid.c$252$2$156 ==.
                                   2194 ;	D:\Freelancer_projects\jan333\sdcc_project\src\u2f_hid.c:252: for(i = 0; i < CID_MAX; i++)
      0004AA 7B 00            [12] 2195 	mov	r3,#0x00
      0004AC                       2196 00104$:
                           0004AC  2197 	C$u2f_hid.c$254$2$156 ==.
                                   2198 ;	D:\Freelancer_projects\jan333\sdcc_project\src\u2f_hid.c:254: if (CIDS[i].cid == cid)
      0004AC EB               [12] 2199 	mov	a,r3
      0004AD 75 F0 0A         [24] 2200 	mov	b,#0x0a
      0004B0 A4               [48] 2201 	mul	ab
      0004B1 FD               [12] 2202 	mov	r5,a
      0004B2 AC F0            [24] 2203 	mov	r4,b
      0004B4 E5*00            [12] 2204 	mov	a,_bp
      0004B6 24 05            [12] 2205 	add	a,#0x05
      0004B8 F8               [12] 2206 	mov	r0,a
      0004B9 ED               [12] 2207 	mov	a,r5
      0004BA 24r20            [12] 2208 	add	a,#_CIDS
      0004BC F6               [12] 2209 	mov	@r0,a
      0004BD EC               [12] 2210 	mov	a,r4
      0004BE 34s01            [12] 2211 	addc	a,#(_CIDS >> 8)
      0004C0 08               [12] 2212 	inc	r0
      0004C1 F6               [12] 2213 	mov	@r0,a
      0004C2 C0 03            [24] 2214 	push	ar3
      0004C4 E5*00            [12] 2215 	mov	a,_bp
      0004C6 24 05            [12] 2216 	add	a,#0x05
      0004C8 F8               [12] 2217 	mov	r0,a
      0004C9 86 82            [24] 2218 	mov	dpl,@r0
      0004CB 08               [12] 2219 	inc	r0
      0004CC 86 83            [24] 2220 	mov	dph,@r0
      0004CE E0               [24] 2221 	movx	a,@dptr
      0004CF FA               [12] 2222 	mov	r2,a
      0004D0 A3               [24] 2223 	inc	dptr
      0004D1 E0               [24] 2224 	movx	a,@dptr
      0004D2 FB               [12] 2225 	mov	r3,a
      0004D3 A3               [24] 2226 	inc	dptr
      0004D4 E0               [24] 2227 	movx	a,@dptr
      0004D5 FE               [12] 2228 	mov	r6,a
      0004D6 A3               [24] 2229 	inc	dptr
      0004D7 E0               [24] 2230 	movx	a,@dptr
      0004D8 FF               [12] 2231 	mov	r7,a
      0004D9 A8*00            [24] 2232 	mov	r0,_bp
      0004DB 08               [12] 2233 	inc	r0
      0004DC E6               [12] 2234 	mov	a,@r0
      0004DD B5 02 11         [24] 2235 	cjne	a,ar2,00115$
      0004E0 08               [12] 2236 	inc	r0
      0004E1 E6               [12] 2237 	mov	a,@r0
      0004E2 B5 03 0C         [24] 2238 	cjne	a,ar3,00115$
      0004E5 08               [12] 2239 	inc	r0
      0004E6 E6               [12] 2240 	mov	a,@r0
      0004E7 B5 06 07         [24] 2241 	cjne	a,ar6,00115$
      0004EA 08               [12] 2242 	inc	r0
      0004EB E6               [12] 2243 	mov	a,@r0
      0004EC B5 07 02         [24] 2244 	cjne	a,ar7,00115$
      0004EF 80 04            [24] 2245 	sjmp	00116$
      0004F1                       2246 00115$:
      0004F1 D0 03            [24] 2247 	pop	ar3
      0004F3 80 27            [24] 2248 	sjmp	00105$
      0004F5                       2249 00116$:
      0004F5 D0 03            [24] 2250 	pop	ar3
                           0004F7  2251 	C$u2f_hid.c$256$3$157 ==.
                                   2252 ;	D:\Freelancer_projects\jan333\sdcc_project\src\u2f_hid.c:256: CIDS[i].cid = 0;
      0004F7 E5*00            [12] 2253 	mov	a,_bp
      0004F9 24 05            [12] 2254 	add	a,#0x05
      0004FB F8               [12] 2255 	mov	r0,a
      0004FC 86 82            [24] 2256 	mov	dpl,@r0
      0004FE 08               [12] 2257 	inc	r0
      0004FF 86 83            [24] 2258 	mov	dph,@r0
      000501 E4               [12] 2259 	clr	a
      000502 F0               [24] 2260 	movx	@dptr,a
      000503 A3               [24] 2261 	inc	dptr
      000504 F0               [24] 2262 	movx	@dptr,a
      000505 A3               [24] 2263 	inc	dptr
      000506 F0               [24] 2264 	movx	@dptr,a
      000507 A3               [24] 2265 	inc	dptr
      000508 F0               [24] 2266 	movx	@dptr,a
                           000509  2267 	C$u2f_hid.c$257$3$157 ==.
                                   2268 ;	D:\Freelancer_projects\jan333\sdcc_project\src\u2f_hid.c:257: CIDS[i].busy = 0;
      000509 ED               [12] 2269 	mov	a,r5
      00050A 24r20            [12] 2270 	add	a,#_CIDS
      00050C FE               [12] 2271 	mov	r6,a
      00050D EC               [12] 2272 	mov	a,r4
      00050E 34s01            [12] 2273 	addc	a,#(_CIDS >> 8)
      000510 FF               [12] 2274 	mov	r7,a
      000511 74 08            [12] 2275 	mov	a,#0x08
      000513 2E               [12] 2276 	add	a,r6
      000514 F5 82            [12] 2277 	mov	dpl,a
      000516 E4               [12] 2278 	clr	a
      000517 3F               [12] 2279 	addc	a,r7
      000518 F5 83            [12] 2280 	mov	dph,a
      00051A E4               [12] 2281 	clr	a
      00051B F0               [24] 2282 	movx	@dptr,a
      00051C                       2283 00105$:
                           00051C  2284 	C$u2f_hid.c$252$1$155 ==.
                                   2285 ;	D:\Freelancer_projects\jan333\sdcc_project\src\u2f_hid.c:252: for(i = 0; i < CID_MAX; i++)
      00051C 0B               [12] 2286 	inc	r3
      00051D BB 05 00         [24] 2287 	cjne	r3,#0x05,00117$
      000520                       2288 00117$:
      000520 40 8A            [24] 2289 	jc	00104$
      000522 85*00 81         [24] 2290 	mov	sp,_bp
      000525 D0*00            [24] 2291 	pop	_bp
                           000527  2292 	C$u2f_hid.c$260$1$155 ==.
                           000527  2293 	XFu2f_hid$del_cid$0$0 ==.
      000527 22               [24] 2294 	ret
                                   2295 ;------------------------------------------------------------
                                   2296 ;Allocation info for local variables in function 'stamp_error'
                                   2297 ;------------------------------------------------------------
                                   2298 ;err                       Allocated to stack - _bp -3
                                   2299 ;cid                       Allocated to registers r4 r5 r6 r7 
                                   2300 ;res                       Allocated to registers 
                                   2301 ;------------------------------------------------------------
                           000528  2302 	Fu2f_hid$stamp_error$0$0 ==.
                           000528  2303 	C$u2f_hid.c$263$1$155 ==.
                                   2304 ;	D:\Freelancer_projects\jan333\sdcc_project\src\u2f_hid.c:263: static void stamp_error(uint32_t cid, uint8_t err)
                                   2305 ;	-----------------------------------------
                                   2306 ;	 function stamp_error
                                   2307 ;	-----------------------------------------
      000528                       2308 _stamp_error:
      000528 C0*00            [24] 2309 	push	_bp
      00052A 85 81*00         [24] 2310 	mov	_bp,sp
      00052D AC 82            [24] 2311 	mov	r4,dpl
      00052F AD 83            [24] 2312 	mov	r5,dph
      000531 AE F0            [24] 2313 	mov	r6,b
      000533 FF               [12] 2314 	mov	r7,a
                           000534  2315 	C$u2f_hid.c$266$1$159 ==.
                                   2316 ;	D:\Freelancer_projects\jan333\sdcc_project\src\u2f_hid.c:266: struct u2f_hid_msg * res = (struct u2f_hid_msg *)errbuf;
                           000534  2317 	C$u2f_hid.c$267$1$159 ==.
                                   2318 ;	D:\Freelancer_projects\jan333\sdcc_project\src\u2f_hid.c:267: memset(errbuf,0,sizeof(errbuf));
      000534 C0 07            [24] 2319 	push	ar7
      000536 C0 06            [24] 2320 	push	ar6
      000538 C0 05            [24] 2321 	push	ar5
      00053A C0 04            [24] 2322 	push	ar4
      00053C 74 40            [12] 2323 	mov	a,#0x40
      00053E C0 E0            [24] 2324 	push	acc
      000540 E4               [12] 2325 	clr	a
      000541 C0 E0            [24] 2326 	push	acc
      000543 C0 E0            [24] 2327 	push	acc
      000545 90r01r96         [24] 2328 	mov	dptr,#_errbuf
      000548 75 F0 00         [24] 2329 	mov	b,#0x00
      00054B 12r00r00         [24] 2330 	lcall	_memset
      00054E 15 81            [12] 2331 	dec	sp
      000550 15 81            [12] 2332 	dec	sp
      000552 15 81            [12] 2333 	dec	sp
      000554 D0 04            [24] 2334 	pop	ar4
      000556 D0 05            [24] 2335 	pop	ar5
      000558 D0 06            [24] 2336 	pop	ar6
      00055A D0 07            [24] 2337 	pop	ar7
                           00055C  2338 	C$u2f_hid.c$268$1$159 ==.
                                   2339 ;	D:\Freelancer_projects\jan333\sdcc_project\src\u2f_hid.c:268: res->cid = cid;
      00055C 90r01r96         [24] 2340 	mov	dptr,#_errbuf
      00055F EC               [12] 2341 	mov	a,r4
      000560 F0               [24] 2342 	movx	@dptr,a
      000561 ED               [12] 2343 	mov	a,r5
      000562 A3               [24] 2344 	inc	dptr
      000563 F0               [24] 2345 	movx	@dptr,a
      000564 EE               [12] 2346 	mov	a,r6
      000565 A3               [24] 2347 	inc	dptr
      000566 F0               [24] 2348 	movx	@dptr,a
      000567 EF               [12] 2349 	mov	a,r7
      000568 A3               [24] 2350 	inc	dptr
      000569 F0               [24] 2351 	movx	@dptr,a
                           00056A  2352 	C$u2f_hid.c$269$1$159 ==.
                                   2353 ;	D:\Freelancer_projects\jan333\sdcc_project\src\u2f_hid.c:269: res->pkt.init.cmd = U2FHID_ERROR;
      00056A 90r01r9A         [24] 2354 	mov	dptr,#(_errbuf + 0x0004)
      00056D 75 F0 00         [24] 2355 	mov	b,#0x00
      000570 74 BF            [12] 2356 	mov	a,#0xbf
      000572 12r00r00         [24] 2357 	lcall	__gptrput
                           000575  2358 	C$u2f_hid.c$270$1$159 ==.
                                   2359 ;	D:\Freelancer_projects\jan333\sdcc_project\src\u2f_hid.c:270: res->pkt.init.payload[0] = err;
      000575 90r01r9D         [24] 2360 	mov	dptr,#(_errbuf + 0x0007)
      000578 75 F0 00         [24] 2361 	mov	b,#0x00
      00057B E5*00            [12] 2362 	mov	a,_bp
      00057D 24 FD            [12] 2363 	add	a,#0xfd
      00057F F8               [12] 2364 	mov	r0,a
      000580 E6               [12] 2365 	mov	a,@r0
      000581 12r00r00         [24] 2366 	lcall	__gptrput
                           000584  2367 	C$u2f_hid.c$271$1$159 ==.
                                   2368 ;	D:\Freelancer_projects\jan333\sdcc_project\src\u2f_hid.c:271: res->pkt.init.bcnth = 0;
      000584 90r01r9B         [24] 2369 	mov	dptr,#(_errbuf + 0x0005)
      000587 E4               [12] 2370 	clr	a
      000588 F5 F0            [12] 2371 	mov	b,a
      00058A 12r00r00         [24] 2372 	lcall	__gptrput
                           00058D  2373 	C$u2f_hid.c$272$1$159 ==.
                                   2374 ;	D:\Freelancer_projects\jan333\sdcc_project\src\u2f_hid.c:272: res->pkt.init.bcntl = 1;
      00058D 90r01r9C         [24] 2375 	mov	dptr,#(_errbuf + 0x0006)
      000590 75 F0 00         [24] 2376 	mov	b,#0x00
      000593 04               [12] 2377 	inc	a
      000594 12r00r00         [24] 2378 	lcall	__gptrput
                           000597  2379 	C$u2f_hid.c$275$1$159 ==.
                                   2380 ;	D:\Freelancer_projects\jan333\sdcc_project\src\u2f_hid.c:275: usb_write(errbuf, HID_PACKET_SIZE); //usb_write(res, HID_PACKET_SIZE);
      000597 C0 07            [24] 2381 	push	ar7
      000599 C0 06            [24] 2382 	push	ar6
      00059B C0 05            [24] 2383 	push	ar5
      00059D C0 04            [24] 2384 	push	ar4
      00059F 74 40            [12] 2385 	mov	a,#0x40
      0005A1 C0 E0            [24] 2386 	push	acc
      0005A3 90r01r96         [24] 2387 	mov	dptr,#_errbuf
      0005A6 75 F0 00         [24] 2388 	mov	b,#0x00
      0005A9 12r00r00         [24] 2389 	lcall	_usb_write
      0005AC 15 81            [12] 2390 	dec	sp
      0005AE D0 04            [24] 2391 	pop	ar4
      0005B0 D0 05            [24] 2392 	pop	ar5
      0005B2 D0 06            [24] 2393 	pop	ar6
      0005B4 D0 07            [24] 2394 	pop	ar7
                           0005B6  2395 	C$u2f_hid.c$276$1$159 ==.
                                   2396 ;	D:\Freelancer_projects\jan333\sdcc_project\src\u2f_hid.c:276: del_cid(cid);
      0005B6 8C 82            [24] 2397 	mov	dpl,r4
      0005B8 8D 83            [24] 2398 	mov	dph,r5
      0005BA 8E F0            [24] 2399 	mov	b,r6
      0005BC EF               [12] 2400 	mov	a,r7
      0005BD 12r04r99         [24] 2401 	lcall	_del_cid
      0005C0 D0*00            [24] 2402 	pop	_bp
                           0005C2  2403 	C$u2f_hid.c$277$1$159 ==.
                           0005C2  2404 	XFu2f_hid$stamp_error$0$0 ==.
      0005C2 22               [24] 2405 	ret
                                   2406 ;------------------------------------------------------------
                                   2407 ;Allocation info for local variables in function 'start_buffering'
                                   2408 ;------------------------------------------------------------
                                   2409 ;req                       Allocated to registers r5 r6 r7 
                                   2410 ;------------------------------------------------------------
                           0005C3  2411 	Fu2f_hid$start_buffering$0$0 ==.
                           0005C3  2412 	C$u2f_hid.c$279$1$159 ==.
                                   2413 ;	D:\Freelancer_projects\jan333\sdcc_project\src\u2f_hid.c:279: static void start_buffering(struct u2f_hid_msg* req)
                                   2414 ;	-----------------------------------------
                                   2415 ;	 function start_buffering
                                   2416 ;	-----------------------------------------
      0005C3                       2417 _start_buffering:
      0005C3 AD 82            [24] 2418 	mov	r5,dpl
      0005C5 AE 83            [24] 2419 	mov	r6,dph
      0005C7 AF F0            [24] 2420 	mov	r7,b
                           0005C9  2421 	C$u2f_hid.c$281$1$161 ==.
                                   2422 ;	D:\Freelancer_projects\jan333\sdcc_project\src\u2f_hid.c:281: _hid_in_session = 1;
      0005C9 90r00r0C         [24] 2423 	mov	dptr,#__hid_in_session
      0005CC 74 01            [12] 2424 	mov	a,#0x01
      0005CE F0               [24] 2425 	movx	@dptr,a
                           0005CF  2426 	C$u2f_hid.c$282$1$161 ==.
                                   2427 ;	D:\Freelancer_projects\jan333\sdcc_project\src\u2f_hid.c:282: hid_layer.bytes_buffered = U2FHID_INIT_PAYLOAD_SIZE;
      0005CF 90r00r0A         [24] 2428 	mov	dptr,#(_hid_layer + 0x000a)
      0005D2 74 39            [12] 2429 	mov	a,#0x39
      0005D4 F0               [24] 2430 	movx	@dptr,a
      0005D5 E4               [12] 2431 	clr	a
      0005D6 A3               [24] 2432 	inc	dptr
      0005D7 F0               [24] 2433 	movx	@dptr,a
                           0005D8  2434 	C$u2f_hid.c$283$1$161 ==.
                                   2435 ;	D:\Freelancer_projects\jan333\sdcc_project\src\u2f_hid.c:283: hid_layer.req_len = U2FHID_LEN(req);
      0005D8 74 04            [12] 2436 	mov	a,#0x04
      0005DA 2D               [12] 2437 	add	a,r5
      0005DB FD               [12] 2438 	mov	r5,a
      0005DC E4               [12] 2439 	clr	a
      0005DD 3E               [12] 2440 	addc	a,r6
      0005DE FE               [12] 2441 	mov	r6,a
      0005DF 74 01            [12] 2442 	mov	a,#0x01
      0005E1 2D               [12] 2443 	add	a,r5
      0005E2 FA               [12] 2444 	mov	r2,a
      0005E3 E4               [12] 2445 	clr	a
      0005E4 3E               [12] 2446 	addc	a,r6
      0005E5 FB               [12] 2447 	mov	r3,a
      0005E6 8F 04            [24] 2448 	mov	ar4,r7
      0005E8 8A 82            [24] 2449 	mov	dpl,r2
      0005EA 8B 83            [24] 2450 	mov	dph,r3
      0005EC 8C F0            [24] 2451 	mov	b,r4
      0005EE 12r00r00         [24] 2452 	lcall	__gptrget
      0005F1 FA               [12] 2453 	mov	r2,a
      0005F2 A3               [24] 2454 	inc	dptr
      0005F3 12r00r00         [24] 2455 	lcall	__gptrget
      0005F6 FB               [12] 2456 	mov	r3,a
      0005F7 90r00r0C         [24] 2457 	mov	dptr,#(_hid_layer + 0x000c)
      0005FA EA               [12] 2458 	mov	a,r2
      0005FB F0               [24] 2459 	movx	@dptr,a
      0005FC EB               [12] 2460 	mov	a,r3
      0005FD A3               [24] 2461 	inc	dptr
      0005FE F0               [24] 2462 	movx	@dptr,a
                           0005FF  2463 	C$u2f_hid.c$284$1$161 ==.
                                   2464 ;	D:\Freelancer_projects\jan333\sdcc_project\src\u2f_hid.c:284: memmove(hid_layer.buffer, req->pkt.init.payload, U2FHID_INIT_PAYLOAD_SIZE);
      0005FF 74 03            [12] 2465 	mov	a,#0x03
      000601 2D               [12] 2466 	add	a,r5
      000602 FD               [12] 2467 	mov	r5,a
      000603 E4               [12] 2468 	clr	a
      000604 3E               [12] 2469 	addc	a,r6
      000605 FE               [12] 2470 	mov	r6,a
      000606 74 39            [12] 2471 	mov	a,#0x39
      000608 C0 E0            [24] 2472 	push	acc
      00060A E4               [12] 2473 	clr	a
      00060B C0 E0            [24] 2474 	push	acc
      00060D C0 05            [24] 2475 	push	ar5
      00060F C0 06            [24] 2476 	push	ar6
      000611 C0 07            [24] 2477 	push	ar7
      000613 90r00r12         [24] 2478 	mov	dptr,#(_hid_layer + 0x0012)
      000616 75 F0 00         [24] 2479 	mov	b,#0x00
      000619 12r00r00         [24] 2480 	lcall	_memmove
      00061C E5 81            [12] 2481 	mov	a,sp
      00061E 24 FB            [12] 2482 	add	a,#0xfb
      000620 F5 81            [12] 2483 	mov	sp,a
                           000622  2484 	C$u2f_hid.c$285$1$161 ==.
                           000622  2485 	XFu2f_hid$start_buffering$0$0 ==.
      000622 22               [24] 2486 	ret
                                   2487 ;------------------------------------------------------------
                                   2488 ;Allocation info for local variables in function 'buffer_request'
                                   2489 ;------------------------------------------------------------
                                   2490 ;req                       Allocated to registers r7 r5 r6 
                                   2491 ;sloc0                     Allocated to stack - _bp +1
                                   2492 ;sloc1                     Allocated to stack - _bp +3
                                   2493 ;------------------------------------------------------------
                           000623  2494 	Fu2f_hid$buffer_request$0$0 ==.
                           000623  2495 	C$u2f_hid.c$287$1$161 ==.
                                   2496 ;	D:\Freelancer_projects\jan333\sdcc_project\src\u2f_hid.c:287: static int buffer_request(struct u2f_hid_msg* req)
                                   2497 ;	-----------------------------------------
                                   2498 ;	 function buffer_request
                                   2499 ;	-----------------------------------------
      000623                       2500 _buffer_request:
      000623 C0*00            [24] 2501 	push	_bp
      000625 E5 81            [12] 2502 	mov	a,sp
      000627 F5*00            [12] 2503 	mov	_bp,a
      000629 24 06            [12] 2504 	add	a,#0x06
      00062B F5 81            [12] 2505 	mov	sp,a
      00062D AF 82            [24] 2506 	mov	r7,dpl
      00062F AD 83            [24] 2507 	mov	r5,dph
      000631 AE F0            [24] 2508 	mov	r6,b
                           000633  2509 	C$u2f_hid.c$289$1$163 ==.
                                   2510 ;	D:\Freelancer_projects\jan333\sdcc_project\src\u2f_hid.c:289: if (hid_layer.bytes_buffered + U2FHID_CONT_PAYLOAD_SIZE > BUFFER_SIZE)
      000633 90r00r0A         [24] 2511 	mov	dptr,#(_hid_layer + 0x000a)
      000636 E0               [24] 2512 	movx	a,@dptr
      000637 FB               [12] 2513 	mov	r3,a
      000638 A3               [24] 2514 	inc	dptr
      000639 E0               [24] 2515 	movx	a,@dptr
      00063A FC               [12] 2516 	mov	r4,a
      00063B A8*00            [24] 2517 	mov	r0,_bp
      00063D 08               [12] 2518 	inc	r0
      00063E 74 3B            [12] 2519 	mov	a,#0x3b
      000640 2B               [12] 2520 	add	a,r3
      000641 F6               [12] 2521 	mov	@r0,a
      000642 E4               [12] 2522 	clr	a
      000643 3C               [12] 2523 	addc	a,r4
      000644 08               [12] 2524 	inc	r0
      000645 F6               [12] 2525 	mov	@r0,a
      000646 A8*00            [24] 2526 	mov	r0,_bp
      000648 08               [12] 2527 	inc	r0
      000649 C3               [12] 2528 	clr	c
      00064A 74 0E            [12] 2529 	mov	a,#0x0e
      00064C 96               [12] 2530 	subb	a,@r0
      00064D 74 01            [12] 2531 	mov	a,#0x01
      00064F 08               [12] 2532 	inc	r0
      000650 96               [12] 2533 	subb	a,@r0
      000651 50 50            [24] 2534 	jnc	00102$
                           000653  2535 	C$u2f_hid.c$291$2$164 ==.
                                   2536 ;	D:\Freelancer_projects\jan333\sdcc_project\src\u2f_hid.c:291: set_app_error(ERROR_HID_BUFFER_FULL);
      000653 75 82 17         [24] 2537 	mov	dpl,#0x17
      000656 C0 07            [24] 2538 	push	ar7
      000658 C0 06            [24] 2539 	push	ar6
      00065A C0 05            [24] 2540 	push	ar5
      00065C 12r00r00         [24] 2541 	lcall	_set_app_error
      00065F D0 05            [24] 2542 	pop	ar5
      000661 D0 06            [24] 2543 	pop	ar6
      000663 D0 07            [24] 2544 	pop	ar7
                           000665  2545 	C$u2f_hid.c$292$2$164 ==.
                                   2546 ;	D:\Freelancer_projects\jan333\sdcc_project\src\u2f_hid.c:292: stamp_error(req->cid, ERR_OTHER);
      000665 8F 82            [24] 2547 	mov	dpl,r7
      000667 8D 83            [24] 2548 	mov	dph,r5
      000669 8E F0            [24] 2549 	mov	b,r6
      00066B E5*00            [12] 2550 	mov	a,_bp
      00066D 24 03            [12] 2551 	add	a,#0x03
      00066F F8               [12] 2552 	mov	r0,a
      000670 12r00r00         [24] 2553 	lcall	__gptrget
      000673 F6               [12] 2554 	mov	@r0,a
      000674 A3               [24] 2555 	inc	dptr
      000675 12r00r00         [24] 2556 	lcall	__gptrget
      000678 08               [12] 2557 	inc	r0
      000679 F6               [12] 2558 	mov	@r0,a
      00067A A3               [24] 2559 	inc	dptr
      00067B 12r00r00         [24] 2560 	lcall	__gptrget
      00067E 08               [12] 2561 	inc	r0
      00067F F6               [12] 2562 	mov	@r0,a
      000680 A3               [24] 2563 	inc	dptr
      000681 12r00r00         [24] 2564 	lcall	__gptrget
      000684 08               [12] 2565 	inc	r0
      000685 F6               [12] 2566 	mov	@r0,a
      000686 74 7F            [12] 2567 	mov	a,#0x7f
      000688 C0 E0            [24] 2568 	push	acc
      00068A E5*00            [12] 2569 	mov	a,_bp
      00068C 24 03            [12] 2570 	add	a,#0x03
      00068E F8               [12] 2571 	mov	r0,a
      00068F 86 82            [24] 2572 	mov	dpl,@r0
      000691 08               [12] 2573 	inc	r0
      000692 86 83            [24] 2574 	mov	dph,@r0
      000694 08               [12] 2575 	inc	r0
      000695 86 F0            [24] 2576 	mov	b,@r0
      000697 08               [12] 2577 	inc	r0
      000698 E6               [12] 2578 	mov	a,@r0
      000699 12r05r28         [24] 2579 	lcall	_stamp_error
      00069C 15 81            [12] 2580 	dec	sp
                           00069E  2581 	C$u2f_hid.c$293$2$164 ==.
                                   2582 ;	D:\Freelancer_projects\jan333\sdcc_project\src\u2f_hid.c:293: return -1;
      00069E 90 FF FF         [24] 2583 	mov	dptr,#0xffff
      0006A1 80 4E            [24] 2584 	sjmp	00103$
      0006A3                       2585 00102$:
                           0006A3  2586 	C$u2f_hid.c$295$1$163 ==.
                                   2587 ;	D:\Freelancer_projects\jan333\sdcc_project\src\u2f_hid.c:295: memmove(hid_layer.buffer + hid_layer.bytes_buffered, req->pkt.cont.payload, U2FHID_CONT_PAYLOAD_SIZE);
      0006A3 74 04            [12] 2588 	mov	a,#0x04
      0006A5 2F               [12] 2589 	add	a,r7
      0006A6 FA               [12] 2590 	mov	r2,a
      0006A7 E4               [12] 2591 	clr	a
      0006A8 3D               [12] 2592 	addc	a,r5
      0006A9 FD               [12] 2593 	mov	r5,a
      0006AA 0A               [12] 2594 	inc	r2
      0006AB BA 00 01         [24] 2595 	cjne	r2,#0x00,00109$
      0006AE 0D               [12] 2596 	inc	r5
      0006AF                       2597 00109$:
      0006AF 8E 07            [24] 2598 	mov	ar7,r6
      0006B1 EB               [12] 2599 	mov	a,r3
      0006B2 24r12            [12] 2600 	add	a,#(_hid_layer + 0x0012)
      0006B4 FB               [12] 2601 	mov	r3,a
      0006B5 EC               [12] 2602 	mov	a,r4
      0006B6 34s00            [12] 2603 	addc	a,#((_hid_layer + 0x0012) >> 8)
      0006B8 FC               [12] 2604 	mov	r4,a
      0006B9 7E 00            [12] 2605 	mov	r6,#0x00
      0006BB 74 3B            [12] 2606 	mov	a,#0x3b
      0006BD C0 E0            [24] 2607 	push	acc
      0006BF E4               [12] 2608 	clr	a
      0006C0 C0 E0            [24] 2609 	push	acc
      0006C2 C0 02            [24] 2610 	push	ar2
      0006C4 C0 05            [24] 2611 	push	ar5
      0006C6 C0 07            [24] 2612 	push	ar7
      0006C8 8B 82            [24] 2613 	mov	dpl,r3
      0006CA 8C 83            [24] 2614 	mov	dph,r4
      0006CC 8E F0            [24] 2615 	mov	b,r6
      0006CE 12r00r00         [24] 2616 	lcall	_memmove
      0006D1 E5 81            [12] 2617 	mov	a,sp
      0006D3 24 FB            [12] 2618 	add	a,#0xfb
      0006D5 F5 81            [12] 2619 	mov	sp,a
                           0006D7  2620 	C$u2f_hid.c$296$1$163 ==.
                                   2621 ;	D:\Freelancer_projects\jan333\sdcc_project\src\u2f_hid.c:296: hid_layer.bytes_buffered += U2FHID_CONT_PAYLOAD_SIZE;
      0006D7 90r00r0A         [24] 2622 	mov	dptr,#(_hid_layer + 0x000a)
      0006DA E0               [24] 2623 	movx	a,@dptr
      0006DB FD               [12] 2624 	mov	r5,a
      0006DC A3               [24] 2625 	inc	dptr
      0006DD E0               [24] 2626 	movx	a,@dptr
      0006DE FE               [12] 2627 	mov	r6,a
      0006DF 74 3B            [12] 2628 	mov	a,#0x3b
      0006E1 2D               [12] 2629 	add	a,r5
      0006E2 FD               [12] 2630 	mov	r5,a
      0006E3 E4               [12] 2631 	clr	a
      0006E4 3E               [12] 2632 	addc	a,r6
      0006E5 FE               [12] 2633 	mov	r6,a
      0006E6 90r00r0A         [24] 2634 	mov	dptr,#(_hid_layer + 0x000a)
      0006E9 ED               [12] 2635 	mov	a,r5
      0006EA F0               [24] 2636 	movx	@dptr,a
      0006EB EE               [12] 2637 	mov	a,r6
      0006EC A3               [24] 2638 	inc	dptr
      0006ED F0               [24] 2639 	movx	@dptr,a
                           0006EE  2640 	C$u2f_hid.c$297$1$163 ==.
                                   2641 ;	D:\Freelancer_projects\jan333\sdcc_project\src\u2f_hid.c:297: return 0;
      0006EE 90 00 00         [24] 2642 	mov	dptr,#0x0000
      0006F1                       2643 00103$:
      0006F1 85*00 81         [24] 2644 	mov	sp,_bp
      0006F4 D0*00            [24] 2645 	pop	_bp
                           0006F6  2646 	C$u2f_hid.c$298$1$163 ==.
                           0006F6  2647 	XFu2f_hid$buffer_request$0$0 ==.
      0006F6 22               [24] 2648 	ret
                                   2649 ;------------------------------------------------------------
                                   2650 ;Allocation info for local variables in function 'hid_u2f_parse'
                                   2651 ;------------------------------------------------------------
                                   2652 ;req                       Allocated to stack - _bp +1
                                   2653 ;len                       Allocated to registers 
                                   2654 ;secs                      Allocated to registers r7 
                                   2655 ;init_res                  Allocated to registers 
                                   2656 ;sloc0                     Allocated to stack - _bp +10
                                   2657 ;sloc1                     Allocated to stack - _bp +4
                                   2658 ;sloc2                     Allocated to stack - _bp +8
                                   2659 ;------------------------------------------------------------
                           0006F7  2660 	Fu2f_hid$hid_u2f_parse$0$0 ==.
                           0006F7  2661 	C$u2f_hid.c$302$1$163 ==.
                                   2662 ;	D:\Freelancer_projects\jan333\sdcc_project\src\u2f_hid.c:302: static uint8_t hid_u2f_parse(struct u2f_hid_msg* req)
                                   2663 ;	-----------------------------------------
                                   2664 ;	 function hid_u2f_parse
                                   2665 ;	-----------------------------------------
      0006F7                       2666 _hid_u2f_parse:
      0006F7 C0*00            [24] 2667 	push	_bp
      0006F9 85 81*00         [24] 2668 	mov	_bp,sp
      0006FC C0 82            [24] 2669 	push	dpl
      0006FE C0 83            [24] 2670 	push	dph
      000700 C0 F0            [24] 2671 	push	b
      000702 E5 81            [12] 2672 	mov	a,sp
      000704 24 08            [12] 2673 	add	a,#0x08
      000706 F5 81            [12] 2674 	mov	sp,a
                           000708  2675 	C$u2f_hid.c$306$1$166 ==.
                                   2676 ;	D:\Freelancer_projects\jan333\sdcc_project\src\u2f_hid.c:306: struct u2f_hid_init_response * init_res = (struct u2f_hid_init_response *) appdata.tmp;
                           000708  2677 	C$u2f_hid.c$308$1$166 ==.
                                   2678 ;	D:\Freelancer_projects\jan333\sdcc_project\src\u2f_hid.c:308: switch(hid_layer.current_cmd)
      000708 90r00r05         [24] 2679 	mov	dptr,#(_hid_layer + 0x0005)
      00070B E0               [24] 2680 	movx	a,@dptr
      00070C FC               [12] 2681 	mov	r4,a
      00070D BC 81 03         [24] 2682 	cjne	r4,#0x81,00203$
      000710 02r09r86         [24] 2683 	ljmp	00119$
      000713                       2684 00203$:
      000713 BC 83 03         [24] 2685 	cjne	r4,#0x83,00204$
      000716 02r08r9D         [24] 2686 	ljmp	00109$
      000719                       2687 00204$:
      000719 BC 84 03         [24] 2688 	cjne	r4,#0x84,00205$
      00071C 02r0Br0E         [24] 2689 	ljmp	00134$
      00071F                       2690 00205$:
      00071F BC 86 02         [24] 2691 	cjne	r4,#0x86,00206$
      000722 80 09            [24] 2692 	sjmp	00101$
      000724                       2693 00206$:
      000724 BC 88 03         [24] 2694 	cjne	r4,#0x88,00207$
      000727 02r0ArA3         [24] 2695 	ljmp	00131$
      00072A                       2696 00207$:
      00072A 02r0BrE3         [24] 2697 	ljmp	00141$
                           00072D  2698 	C$u2f_hid.c$310$2$167 ==.
                                   2699 ;	D:\Freelancer_projects\jan333\sdcc_project\src\u2f_hid.c:310: case U2FHID_INIT:
      00072D                       2700 00101$:
                           00072D  2701 	C$u2f_hid.c$311$2$167 ==.
                                   2702 ;	D:\Freelancer_projects\jan333\sdcc_project\src\u2f_hid.c:311: if (U2FHID_LEN(req) != 8)
      00072D A8*00            [24] 2703 	mov	r0,_bp
      00072F 08               [12] 2704 	inc	r0
      000730 74 04            [12] 2705 	mov	a,#0x04
      000732 26               [12] 2706 	add	a,@r0
      000733 FF               [12] 2707 	mov	r7,a
      000734 E4               [12] 2708 	clr	a
      000735 08               [12] 2709 	inc	r0
      000736 36               [12] 2710 	addc	a,@r0
      000737 FE               [12] 2711 	mov	r6,a
      000738 08               [12] 2712 	inc	r0
      000739 86 05            [24] 2713 	mov	ar5,@r0
      00073B 74 01            [12] 2714 	mov	a,#0x01
      00073D 2F               [12] 2715 	add	a,r7
      00073E FA               [12] 2716 	mov	r2,a
      00073F E4               [12] 2717 	clr	a
      000740 3E               [12] 2718 	addc	a,r6
      000741 FB               [12] 2719 	mov	r3,a
      000742 8D 04            [24] 2720 	mov	ar4,r5
      000744 8A 82            [24] 2721 	mov	dpl,r2
      000746 8B 83            [24] 2722 	mov	dph,r3
      000748 8C F0            [24] 2723 	mov	b,r4
      00074A 12r00r00         [24] 2724 	lcall	__gptrget
      00074D FA               [12] 2725 	mov	r2,a
      00074E A3               [24] 2726 	inc	dptr
      00074F 12r00r00         [24] 2727 	lcall	__gptrget
      000752 FB               [12] 2728 	mov	r3,a
      000753 BA 08 05         [24] 2729 	cjne	r2,#0x08,00208$
      000756 BB 00 02         [24] 2730 	cjne	r3,#0x00,00208$
      000759 80 31            [24] 2731 	sjmp	00103$
      00075B                       2732 00208$:
                           00075B  2733 	C$u2f_hid.c$313$3$168 ==.
                                   2734 ;	D:\Freelancer_projects\jan333\sdcc_project\src\u2f_hid.c:313: stamp_error(hid_layer.current_cid, ERR_INVALID_LEN);
      00075B 90r00r01         [24] 2735 	mov	dptr,#(_hid_layer + 0x0001)
      00075E E5*00            [12] 2736 	mov	a,_bp
      000760 24 04            [12] 2737 	add	a,#0x04
      000762 F8               [12] 2738 	mov	r0,a
      000763 E0               [24] 2739 	movx	a,@dptr
      000764 F6               [12] 2740 	mov	@r0,a
      000765 A3               [24] 2741 	inc	dptr
      000766 E0               [24] 2742 	movx	a,@dptr
      000767 08               [12] 2743 	inc	r0
      000768 F6               [12] 2744 	mov	@r0,a
      000769 A3               [24] 2745 	inc	dptr
      00076A E0               [24] 2746 	movx	a,@dptr
      00076B 08               [12] 2747 	inc	r0
      00076C F6               [12] 2748 	mov	@r0,a
      00076D A3               [24] 2749 	inc	dptr
      00076E E0               [24] 2750 	movx	a,@dptr
      00076F 08               [12] 2751 	inc	r0
      000770 F6               [12] 2752 	mov	@r0,a
      000771 74 03            [12] 2753 	mov	a,#0x03
      000773 C0 E0            [24] 2754 	push	acc
      000775 E5*00            [12] 2755 	mov	a,_bp
      000777 24 04            [12] 2756 	add	a,#0x04
      000779 F8               [12] 2757 	mov	r0,a
      00077A 86 82            [24] 2758 	mov	dpl,@r0
      00077C 08               [12] 2759 	inc	r0
      00077D 86 83            [24] 2760 	mov	dph,@r0
      00077F 08               [12] 2761 	inc	r0
      000780 86 F0            [24] 2762 	mov	b,@r0
      000782 08               [12] 2763 	inc	r0
      000783 E6               [12] 2764 	mov	a,@r0
      000784 12r05r28         [24] 2765 	lcall	_stamp_error
      000787 15 81            [12] 2766 	dec	sp
                           000789  2767 	C$u2f_hid.c$314$3$168 ==.
                                   2768 ;	D:\Freelancer_projects\jan333\sdcc_project\src\u2f_hid.c:314: goto fail;
      000789 02r0Cr34         [24] 2769 	ljmp	00143$
      00078C                       2770 00103$:
                           00078C  2771 	C$u2f_hid.c$316$2$167 ==.
                                   2772 ;	D:\Freelancer_projects\jan333\sdcc_project\src\u2f_hid.c:316: u2f_hid_set_len(17);
      00078C 90 00 11         [24] 2773 	mov	dptr,#0x0011
      00078F C0 07            [24] 2774 	push	ar7
      000791 C0 06            [24] 2775 	push	ar6
      000793 C0 05            [24] 2776 	push	ar5
      000795 12r00r46         [24] 2777 	lcall	_u2f_hid_set_len
      000798 D0 05            [24] 2778 	pop	ar5
      00079A D0 06            [24] 2779 	pop	ar6
      00079C D0 07            [24] 2780 	pop	ar7
                           00079E  2781 	C$u2f_hid.c$319$2$167 ==.
                                   2782 ;	D:\Freelancer_projects\jan333\sdcc_project\src\u2f_hid.c:319: if (hid_layer.current_cid == U2FHID_BROADCAST)
      00079E 90r00r01         [24] 2783 	mov	dptr,#(_hid_layer + 0x0001)
      0007A1 E5*00            [12] 2784 	mov	a,_bp
      0007A3 24 04            [12] 2785 	add	a,#0x04
      0007A5 F8               [12] 2786 	mov	r0,a
      0007A6 E0               [24] 2787 	movx	a,@dptr
      0007A7 F6               [12] 2788 	mov	@r0,a
      0007A8 A3               [24] 2789 	inc	dptr
      0007A9 E0               [24] 2790 	movx	a,@dptr
      0007AA 08               [12] 2791 	inc	r0
      0007AB F6               [12] 2792 	mov	@r0,a
      0007AC A3               [24] 2793 	inc	dptr
      0007AD E0               [24] 2794 	movx	a,@dptr
      0007AE 08               [12] 2795 	inc	r0
      0007AF F6               [12] 2796 	mov	@r0,a
      0007B0 A3               [24] 2797 	inc	dptr
      0007B1 E0               [24] 2798 	movx	a,@dptr
      0007B2 08               [12] 2799 	inc	r0
      0007B3 F6               [12] 2800 	mov	@r0,a
      0007B4 E5*00            [12] 2801 	mov	a,_bp
      0007B6 24 04            [12] 2802 	add	a,#0x04
      0007B8 F8               [12] 2803 	mov	r0,a
      0007B9 B6 FF 54         [24] 2804 	cjne	@r0,#0xff,00107$
      0007BC 08               [12] 2805 	inc	r0
      0007BD B6 FF 50         [24] 2806 	cjne	@r0,#0xff,00107$
      0007C0 08               [12] 2807 	inc	r0
      0007C1 B6 FF 4C         [24] 2808 	cjne	@r0,#0xff,00107$
      0007C4 08               [12] 2809 	inc	r0
      0007C5 B6 FF 48         [24] 2810 	cjne	@r0,#0xff,00107$
                           0007C8  2811 	C$u2f_hid.c$321$3$169 ==.
                                   2812 ;	D:\Freelancer_projects\jan333\sdcc_project\src\u2f_hid.c:321: if (hid_layer.current_cid == 0)
      0007C8 E5*00            [12] 2813 	mov	a,_bp
      0007CA 24 04            [12] 2814 	add	a,#0x04
      0007CC F8               [12] 2815 	mov	r0,a
      0007CD E6               [12] 2816 	mov	a,@r0
      0007CE 08               [12] 2817 	inc	r0
      0007CF 46               [12] 2818 	orl	a,@r0
      0007D0 08               [12] 2819 	inc	r0
      0007D1 46               [12] 2820 	orl	a,@r0
      0007D2 08               [12] 2821 	inc	r0
      0007D3 46               [12] 2822 	orl	a,@r0
      0007D4 70 09            [24] 2823 	jnz	00105$
                           0007D6  2824 	C$u2f_hid.c$323$4$170 ==.
                                   2825 ;	D:\Freelancer_projects\jan333\sdcc_project\src\u2f_hid.c:323: set_app_error(ERROR_OUT_OF_CIDS);
      0007D6 75 82 20         [24] 2826 	mov	dpl,#0x20
      0007D9 12r00r00         [24] 2827 	lcall	_set_app_error
                           0007DC  2828 	C$u2f_hid.c$324$4$170 ==.
                                   2829 ;	D:\Freelancer_projects\jan333\sdcc_project\src\u2f_hid.c:324: goto fail;
      0007DC 02r0Cr34         [24] 2830 	ljmp	00143$
      0007DF                       2831 00105$:
                           0007DF  2832 	C$u2f_hid.c$326$3$169 ==.
                                   2833 ;	D:\Freelancer_projects\jan333\sdcc_project\src\u2f_hid.c:326: init_res->cid = get_new_cid();
      0007DF C0 07            [24] 2834 	push	ar7
      0007E1 C0 06            [24] 2835 	push	ar6
      0007E3 C0 05            [24] 2836 	push	ar5
      0007E5 12r02r6F         [24] 2837 	lcall	_get_new_cid
      0007E8 C8               [12] 2838 	xch	a,r0
      0007E9 E5*00            [12] 2839 	mov	a,_bp
      0007EB 24 08            [12] 2840 	add	a,#0x08
      0007ED C8               [12] 2841 	xch	a,r0
      0007EE A6 82            [24] 2842 	mov	@r0,dpl
      0007F0 08               [12] 2843 	inc	r0
      0007F1 A6 83            [24] 2844 	mov	@r0,dph
      0007F3 08               [12] 2845 	inc	r0
      0007F4 A6 F0            [24] 2846 	mov	@r0,b
      0007F6 08               [12] 2847 	inc	r0
      0007F7 F6               [12] 2848 	mov	@r0,a
      0007F8 D0 05            [24] 2849 	pop	ar5
      0007FA D0 06            [24] 2850 	pop	ar6
      0007FC D0 07            [24] 2851 	pop	ar7
      0007FE E5*00            [12] 2852 	mov	a,_bp
      000800 24 08            [12] 2853 	add	a,#0x08
      000802 F8               [12] 2854 	mov	r0,a
      000803 86*00            [24] 2855 	mov	(_appdata + 0),@r0
      000805 08               [12] 2856 	inc	r0
      000806 86*01            [24] 2857 	mov	(_appdata + 1),@r0
      000808 08               [12] 2858 	inc	r0
      000809 86*02            [24] 2859 	mov	(_appdata + 2),@r0
      00080B 08               [12] 2860 	inc	r0
      00080C 86*03            [24] 2861 	mov	(_appdata + 3),@r0
      00080E 80 10            [24] 2862 	sjmp	00108$
      000810                       2863 00107$:
                           000810  2864 	C$u2f_hid.c$330$3$171 ==.
                                   2865 ;	D:\Freelancer_projects\jan333\sdcc_project\src\u2f_hid.c:330: init_res->cid = hid_layer.current_cid;
      000810 E5*00            [12] 2866 	mov	a,_bp
      000812 24 04            [12] 2867 	add	a,#0x04
      000814 F8               [12] 2868 	mov	r0,a
      000815 86*00            [24] 2869 	mov	(_appdata + 0),@r0
      000817 08               [12] 2870 	inc	r0
      000818 86*01            [24] 2871 	mov	(_appdata + 1),@r0
      00081A 08               [12] 2872 	inc	r0
      00081B 86*02            [24] 2873 	mov	(_appdata + 2),@r0
      00081D 08               [12] 2874 	inc	r0
      00081E 86*03            [24] 2875 	mov	(_appdata + 3),@r0
      000820                       2876 00108$:
                           000820  2877 	C$u2f_hid.c$332$2$167 ==.
                                   2878 ;	D:\Freelancer_projects\jan333\sdcc_project\src\u2f_hid.c:332: init_res->version_id = 2;
      000820 90r00r04         [24] 2879 	mov	dptr,#(_appdata + 0x0004)
      000823 75 F0 40         [24] 2880 	mov	b,#0x40
      000826 74 02            [12] 2881 	mov	a,#0x02
      000828 12r00r00         [24] 2882 	lcall	__gptrput
                           00082B  2883 	C$u2f_hid.c$333$2$167 ==.
                                   2884 ;	D:\Freelancer_projects\jan333\sdcc_project\src\u2f_hid.c:333: init_res->version_major = 2;
      00082B 90r00r05         [24] 2885 	mov	dptr,#(_appdata + 0x0005)
      00082E 75 F0 40         [24] 2886 	mov	b,#0x40
      000831 12r00r00         [24] 2887 	lcall	__gptrput
                           000834  2888 	C$u2f_hid.c$334$2$167 ==.
                                   2889 ;	D:\Freelancer_projects\jan333\sdcc_project\src\u2f_hid.c:334: init_res->version_minor = 0;
      000834 90r00r06         [24] 2890 	mov	dptr,#(_appdata + 0x0006)
      000837 75 F0 40         [24] 2891 	mov	b,#0x40
      00083A E4               [12] 2892 	clr	a
      00083B 12r00r00         [24] 2893 	lcall	__gptrput
                           00083E  2894 	C$u2f_hid.c$335$2$167 ==.
                                   2895 ;	D:\Freelancer_projects\jan333\sdcc_project\src\u2f_hid.c:335: init_res->version_build = 0;
      00083E 90r00r07         [24] 2896 	mov	dptr,#(_appdata + 0x0007)
      000841 75 F0 40         [24] 2897 	mov	b,#0x40
      000844 12r00r00         [24] 2898 	lcall	__gptrput
                           000847  2899 	C$u2f_hid.c$338$2$167 ==.
                                   2900 ;	D:\Freelancer_projects\jan333\sdcc_project\src\u2f_hid.c:338: init_res->cflags = CAPABILITY_WINK | CAPABILITY_LOCK;
      000847 90r00r08         [24] 2901 	mov	dptr,#(_appdata + 0x0008)
      00084A 75 F0 40         [24] 2902 	mov	b,#0x40
      00084D 74 03            [12] 2903 	mov	a,#0x03
      00084F 12r00r00         [24] 2904 	lcall	__gptrput
                           000852  2905 	C$u2f_hid.c$348$2$167 ==.
                                   2906 ;	D:\Freelancer_projects\jan333\sdcc_project\src\u2f_hid.c:348: u2f_hid_writeback(req->pkt.init.payload, 8);
      000852 2F               [12] 2907 	add	a,r7
      000853 FA               [12] 2908 	mov	r2,a
      000854 E4               [12] 2909 	clr	a
      000855 3E               [12] 2910 	addc	a,r6
      000856 FB               [12] 2911 	mov	r3,a
      000857 8D 04            [24] 2912 	mov	ar4,r5
      000859 74 08            [12] 2913 	mov	a,#0x08
      00085B C0 E0            [24] 2914 	push	acc
      00085D E4               [12] 2915 	clr	a
      00085E C0 E0            [24] 2916 	push	acc
      000860 8A 82            [24] 2917 	mov	dpl,r2
      000862 8B 83            [24] 2918 	mov	dph,r3
      000864 8C F0            [24] 2919 	mov	b,r4
      000866 12r00rAF         [24] 2920 	lcall	_u2f_hid_writeback
      000869 15 81            [12] 2921 	dec	sp
      00086B 15 81            [12] 2922 	dec	sp
                           00086D  2923 	C$u2f_hid.c$349$2$167 ==.
                                   2924 ;	D:\Freelancer_projects\jan333\sdcc_project\src\u2f_hid.c:349: u2f_hid_writeback((uint8_t *)init_res, 9);
      00086D 74 09            [12] 2925 	mov	a,#0x09
      00086F C0 E0            [24] 2926 	push	acc
      000871 E4               [12] 2927 	clr	a
      000872 C0 E0            [24] 2928 	push	acc
      000874 90r00r00         [24] 2929 	mov	dptr,#_appdata
      000877 75 F0 40         [24] 2930 	mov	b,#0x40
      00087A 12r00rAF         [24] 2931 	lcall	_u2f_hid_writeback
      00087D 15 81            [12] 2932 	dec	sp
      00087F 15 81            [12] 2933 	dec	sp
                           000881  2934 	C$u2f_hid.c$350$2$167 ==.
                                   2935 ;	D:\Freelancer_projects\jan333\sdcc_project\src\u2f_hid.c:350: u2f_hid_flush();
      000881 12r00r95         [24] 2936 	lcall	_u2f_hid_flush
                           000884  2937 	C$u2f_hid.c$352$2$167 ==.
                                   2938 ;	D:\Freelancer_projects\jan333\sdcc_project\src\u2f_hid.c:352: hid_layer.current_cid = init_res->cid;
      000884 AF*00            [24] 2939 	mov	r7,(_appdata + 0)
      000886 AE*01            [24] 2940 	mov	r6,(_appdata + 1)
      000888 AD*02            [24] 2941 	mov	r5,(_appdata + 2)
      00088A AC*03            [24] 2942 	mov	r4,(_appdata + 3)
      00088C 90r00r01         [24] 2943 	mov	dptr,#(_hid_layer + 0x0001)
      00088F EF               [12] 2944 	mov	a,r7
      000890 F0               [24] 2945 	movx	@dptr,a
      000891 EE               [12] 2946 	mov	a,r6
      000892 A3               [24] 2947 	inc	dptr
      000893 F0               [24] 2948 	movx	@dptr,a
      000894 ED               [12] 2949 	mov	a,r5
      000895 A3               [24] 2950 	inc	dptr
      000896 F0               [24] 2951 	movx	@dptr,a
      000897 EC               [12] 2952 	mov	a,r4
      000898 A3               [24] 2953 	inc	dptr
      000899 F0               [24] 2954 	movx	@dptr,a
                           00089A  2955 	C$u2f_hid.c$356$2$167 ==.
                                   2956 ;	D:\Freelancer_projects\jan333\sdcc_project\src\u2f_hid.c:356: break;
      00089A 02r0Cr2B         [24] 2957 	ljmp	00142$
                           00089D  2958 	C$u2f_hid.c$357$2$167 ==.
                                   2959 ;	D:\Freelancer_projects\jan333\sdcc_project\src\u2f_hid.c:357: case U2FHID_MSG:
      00089D                       2960 00109$:
                           00089D  2961 	C$u2f_hid.c$359$2$167 ==.
                                   2962 ;	D:\Freelancer_projects\jan333\sdcc_project\src\u2f_hid.c:359: if (U2FHID_LEN(req) < 4)
      00089D A8*00            [24] 2963 	mov	r0,_bp
      00089F 08               [12] 2964 	inc	r0
      0008A0 74 04            [12] 2965 	mov	a,#0x04
      0008A2 26               [12] 2966 	add	a,@r0
      0008A3 FA               [12] 2967 	mov	r2,a
      0008A4 E4               [12] 2968 	clr	a
      0008A5 08               [12] 2969 	inc	r0
      0008A6 36               [12] 2970 	addc	a,@r0
      0008A7 FB               [12] 2971 	mov	r3,a
      0008A8 08               [12] 2972 	inc	r0
      0008A9 86 04            [24] 2973 	mov	ar4,@r0
      0008AB 0A               [12] 2974 	inc	r2
      0008AC BA 00 01         [24] 2975 	cjne	r2,#0x00,00212$
      0008AF 0B               [12] 2976 	inc	r3
      0008B0                       2977 00212$:
      0008B0 8A 82            [24] 2978 	mov	dpl,r2
      0008B2 8B 83            [24] 2979 	mov	dph,r3
      0008B4 8C F0            [24] 2980 	mov	b,r4
      0008B6 12r00r00         [24] 2981 	lcall	__gptrget
      0008B9 FA               [12] 2982 	mov	r2,a
      0008BA A3               [24] 2983 	inc	dptr
      0008BB 12r00r00         [24] 2984 	lcall	__gptrget
      0008BE FB               [12] 2985 	mov	r3,a
      0008BF C3               [12] 2986 	clr	c
      0008C0 EA               [12] 2987 	mov	a,r2
      0008C1 94 04            [12] 2988 	subb	a,#0x04
      0008C3 EB               [12] 2989 	mov	a,r3
      0008C4 94 00            [12] 2990 	subb	a,#0x00
      0008C6 50 31            [24] 2991 	jnc	00111$
                           0008C8  2992 	C$u2f_hid.c$361$3$172 ==.
                                   2993 ;	D:\Freelancer_projects\jan333\sdcc_project\src\u2f_hid.c:361: stamp_error(hid_layer.current_cid, ERR_INVALID_LEN);
      0008C8 90r00r01         [24] 2994 	mov	dptr,#(_hid_layer + 0x0001)
      0008CB E5*00            [12] 2995 	mov	a,_bp
      0008CD 24 08            [12] 2996 	add	a,#0x08
      0008CF F8               [12] 2997 	mov	r0,a
      0008D0 E0               [24] 2998 	movx	a,@dptr
      0008D1 F6               [12] 2999 	mov	@r0,a
      0008D2 A3               [24] 3000 	inc	dptr
      0008D3 E0               [24] 3001 	movx	a,@dptr
      0008D4 08               [12] 3002 	inc	r0
      0008D5 F6               [12] 3003 	mov	@r0,a
      0008D6 A3               [24] 3004 	inc	dptr
      0008D7 E0               [24] 3005 	movx	a,@dptr
      0008D8 08               [12] 3006 	inc	r0
      0008D9 F6               [12] 3007 	mov	@r0,a
      0008DA A3               [24] 3008 	inc	dptr
      0008DB E0               [24] 3009 	movx	a,@dptr
      0008DC 08               [12] 3010 	inc	r0
      0008DD F6               [12] 3011 	mov	@r0,a
      0008DE 74 03            [12] 3012 	mov	a,#0x03
      0008E0 C0 E0            [24] 3013 	push	acc
      0008E2 E5*00            [12] 3014 	mov	a,_bp
      0008E4 24 08            [12] 3015 	add	a,#0x08
      0008E6 F8               [12] 3016 	mov	r0,a
      0008E7 86 82            [24] 3017 	mov	dpl,@r0
      0008E9 08               [12] 3018 	inc	r0
      0008EA 86 83            [24] 3019 	mov	dph,@r0
      0008EC 08               [12] 3020 	inc	r0
      0008ED 86 F0            [24] 3021 	mov	b,@r0
      0008EF 08               [12] 3022 	inc	r0
      0008F0 E6               [12] 3023 	mov	a,@r0
      0008F1 12r05r28         [24] 3024 	lcall	_stamp_error
      0008F4 15 81            [12] 3025 	dec	sp
                           0008F6  3026 	C$u2f_hid.c$362$3$172 ==.
                                   3027 ;	D:\Freelancer_projects\jan333\sdcc_project\src\u2f_hid.c:362: goto fail;
      0008F6 02r0Cr34         [24] 3028 	ljmp	00143$
      0008F9                       3029 00111$:
                           0008F9  3030 	C$u2f_hid.c$369$2$167 ==.
                                   3031 ;	D:\Freelancer_projects\jan333\sdcc_project\src\u2f_hid.c:369: if (hid_layer.bytes_buffered == 0)
      0008F9 90r00r0A         [24] 3032 	mov	dptr,#(_hid_layer + 0x000a)
      0008FC E0               [24] 3033 	movx	a,@dptr
      0008FD FB               [12] 3034 	mov	r3,a
      0008FE A3               [24] 3035 	inc	dptr
      0008FF E0               [24] 3036 	movx	a,@dptr
      000900 FC               [12] 3037 	mov	r4,a
      000901 4B               [12] 3038 	orl	a,r3
      000902 70 4E            [24] 3039 	jnz	00117$
                           000904  3040 	C$u2f_hid.c$371$3$173 ==.
                                   3041 ;	D:\Freelancer_projects\jan333\sdcc_project\src\u2f_hid.c:371: start_buffering(req);
      000904 A8*00            [24] 3042 	mov	r0,_bp
      000906 08               [12] 3043 	inc	r0
      000907 86 82            [24] 3044 	mov	dpl,@r0
      000909 08               [12] 3045 	inc	r0
      00090A 86 83            [24] 3046 	mov	dph,@r0
      00090C 08               [12] 3047 	inc	r0
      00090D 86 F0            [24] 3048 	mov	b,@r0
      00090F 12r05rC3         [24] 3049 	lcall	_start_buffering
                           000912  3050 	C$u2f_hid.c$372$3$173 ==.
                                   3051 ;	D:\Freelancer_projects\jan333\sdcc_project\src\u2f_hid.c:372: if (hid_layer.bytes_buffered >= U2FHID_LEN(req))
      000912 90r00r0A         [24] 3052 	mov	dptr,#(_hid_layer + 0x000a)
      000915 E0               [24] 3053 	movx	a,@dptr
      000916 FB               [12] 3054 	mov	r3,a
      000917 A3               [24] 3055 	inc	dptr
      000918 E0               [24] 3056 	movx	a,@dptr
      000919 FC               [12] 3057 	mov	r4,a
      00091A A8*00            [24] 3058 	mov	r0,_bp
      00091C 08               [12] 3059 	inc	r0
      00091D 74 04            [12] 3060 	mov	a,#0x04
      00091F 26               [12] 3061 	add	a,@r0
      000920 FA               [12] 3062 	mov	r2,a
      000921 E4               [12] 3063 	clr	a
      000922 08               [12] 3064 	inc	r0
      000923 36               [12] 3065 	addc	a,@r0
      000924 FE               [12] 3066 	mov	r6,a
      000925 08               [12] 3067 	inc	r0
      000926 86 07            [24] 3068 	mov	ar7,@r0
      000928 0A               [12] 3069 	inc	r2
      000929 BA 00 01         [24] 3070 	cjne	r2,#0x00,00215$
      00092C 0E               [12] 3071 	inc	r6
      00092D                       3072 00215$:
      00092D 8A 82            [24] 3073 	mov	dpl,r2
      00092F 8E 83            [24] 3074 	mov	dph,r6
      000931 8F F0            [24] 3075 	mov	b,r7
      000933 12r00r00         [24] 3076 	lcall	__gptrget
      000936 FA               [12] 3077 	mov	r2,a
      000937 A3               [24] 3078 	inc	dptr
      000938 12r00r00         [24] 3079 	lcall	__gptrget
      00093B FE               [12] 3080 	mov	r6,a
      00093C C3               [12] 3081 	clr	c
      00093D EB               [12] 3082 	mov	a,r3
      00093E 9A               [12] 3083 	subb	a,r2
      00093F EC               [12] 3084 	mov	a,r4
      000940 9E               [12] 3085 	subb	a,r6
      000941 50 03            [24] 3086 	jnc	00216$
      000943 02r0Cr2B         [24] 3087 	ljmp	00142$
      000946                       3088 00216$:
                           000946  3089 	C$u2f_hid.c$374$4$174 ==.
                                   3090 ;	D:\Freelancer_projects\jan333\sdcc_project\src\u2f_hid.c:374: u2f_request((struct u2f_request_apdu *)hid_layer.buffer);
      000946 90r00r12         [24] 3091 	mov	dptr,#(_hid_layer + 0x0012)
      000949 75 F0 00         [24] 3092 	mov	b,#0x00
      00094C 12r00r00         [24] 3093 	lcall	_u2f_request
      00094F 02r0Cr2B         [24] 3094 	ljmp	00142$
      000952                       3095 00117$:
                           000952  3096 	C$u2f_hid.c$379$3$175 ==.
                                   3097 ;	D:\Freelancer_projects\jan333\sdcc_project\src\u2f_hid.c:379: buffer_request(req);
      000952 A8*00            [24] 3098 	mov	r0,_bp
      000954 08               [12] 3099 	inc	r0
      000955 86 82            [24] 3100 	mov	dpl,@r0
      000957 08               [12] 3101 	inc	r0
      000958 86 83            [24] 3102 	mov	dph,@r0
      00095A 08               [12] 3103 	inc	r0
      00095B 86 F0            [24] 3104 	mov	b,@r0
      00095D 12r06r23         [24] 3105 	lcall	_buffer_request
                           000960  3106 	C$u2f_hid.c$380$3$175 ==.
                                   3107 ;	D:\Freelancer_projects\jan333\sdcc_project\src\u2f_hid.c:380: if (hid_layer.bytes_buffered >= hid_layer.req_len)
      000960 90r00r0A         [24] 3108 	mov	dptr,#(_hid_layer + 0x000a)
      000963 E0               [24] 3109 	movx	a,@dptr
      000964 FE               [12] 3110 	mov	r6,a
      000965 A3               [24] 3111 	inc	dptr
      000966 E0               [24] 3112 	movx	a,@dptr
      000967 FF               [12] 3113 	mov	r7,a
      000968 90r00r0C         [24] 3114 	mov	dptr,#(_hid_layer + 0x000c)
      00096B E0               [24] 3115 	movx	a,@dptr
      00096C FC               [12] 3116 	mov	r4,a
      00096D A3               [24] 3117 	inc	dptr
      00096E E0               [24] 3118 	movx	a,@dptr
      00096F FD               [12] 3119 	mov	r5,a
      000970 C3               [12] 3120 	clr	c
      000971 EE               [12] 3121 	mov	a,r6
      000972 9C               [12] 3122 	subb	a,r4
      000973 EF               [12] 3123 	mov	a,r7
      000974 9D               [12] 3124 	subb	a,r5
      000975 50 03            [24] 3125 	jnc	00217$
      000977 02r0Cr2B         [24] 3126 	ljmp	00142$
      00097A                       3127 00217$:
                           00097A  3128 	C$u2f_hid.c$382$4$176 ==.
                                   3129 ;	D:\Freelancer_projects\jan333\sdcc_project\src\u2f_hid.c:382: u2f_request((struct u2f_request_apdu *)hid_layer.buffer);
      00097A 90r00r12         [24] 3130 	mov	dptr,#(_hid_layer + 0x0012)
      00097D 75 F0 00         [24] 3131 	mov	b,#0x00
      000980 12r00r00         [24] 3132 	lcall	_u2f_request
                           000983  3133 	C$u2f_hid.c$387$2$167 ==.
                                   3134 ;	D:\Freelancer_projects\jan333\sdcc_project\src\u2f_hid.c:387: break;
      000983 02r0Cr2B         [24] 3135 	ljmp	00142$
                           000986  3136 	C$u2f_hid.c$388$2$167 ==.
                                   3137 ;	D:\Freelancer_projects\jan333\sdcc_project\src\u2f_hid.c:388: case U2FHID_PING:
      000986                       3138 00119$:
                           000986  3139 	C$u2f_hid.c$391$2$167 ==.
                                   3140 ;	D:\Freelancer_projects\jan333\sdcc_project\src\u2f_hid.c:391: if (hid_layer.bytes_buffered == 0)
      000986 90r00r0A         [24] 3141 	mov	dptr,#(_hid_layer + 0x000a)
      000989 E0               [24] 3142 	movx	a,@dptr
      00098A FE               [12] 3143 	mov	r6,a
      00098B A3               [24] 3144 	inc	dptr
      00098C E0               [24] 3145 	movx	a,@dptr
      00098D FF               [12] 3146 	mov	r7,a
      00098E 4E               [12] 3147 	orl	a,r6
      00098F 60 03            [24] 3148 	jz	00218$
      000991 02r0Ar2B         [24] 3149 	ljmp	00129$
      000994                       3150 00218$:
                           000994  3151 	C$u2f_hid.c$393$3$177 ==.
                                   3152 ;	D:\Freelancer_projects\jan333\sdcc_project\src\u2f_hid.c:393: start_buffering(req);
      000994 A8*00            [24] 3153 	mov	r0,_bp
      000996 08               [12] 3154 	inc	r0
      000997 86 82            [24] 3155 	mov	dpl,@r0
      000999 08               [12] 3156 	inc	r0
      00099A 86 83            [24] 3157 	mov	dph,@r0
      00099C 08               [12] 3158 	inc	r0
      00099D 86 F0            [24] 3159 	mov	b,@r0
      00099F 12r05rC3         [24] 3160 	lcall	_start_buffering
                           0009A2  3161 	C$u2f_hid.c$394$3$177 ==.
                                   3162 ;	D:\Freelancer_projects\jan333\sdcc_project\src\u2f_hid.c:394: u2f_hid_set_len(U2FHID_LEN(req));
      0009A2 A8*00            [24] 3163 	mov	r0,_bp
      0009A4 08               [12] 3164 	inc	r0
      0009A5 74 04            [12] 3165 	mov	a,#0x04
      0009A7 26               [12] 3166 	add	a,@r0
      0009A8 FB               [12] 3167 	mov	r3,a
      0009A9 E4               [12] 3168 	clr	a
      0009AA 08               [12] 3169 	inc	r0
      0009AB 36               [12] 3170 	addc	a,@r0
      0009AC FC               [12] 3171 	mov	r4,a
      0009AD 08               [12] 3172 	inc	r0
      0009AE 86 05            [24] 3173 	mov	ar5,@r0
      0009B0 E5*00            [12] 3174 	mov	a,_bp
      0009B2 24 08            [12] 3175 	add	a,#0x08
      0009B4 F8               [12] 3176 	mov	r0,a
      0009B5 74 01            [12] 3177 	mov	a,#0x01
      0009B7 2B               [12] 3178 	add	a,r3
      0009B8 F6               [12] 3179 	mov	@r0,a
      0009B9 E4               [12] 3180 	clr	a
      0009BA 3C               [12] 3181 	addc	a,r4
      0009BB 08               [12] 3182 	inc	r0
      0009BC F6               [12] 3183 	mov	@r0,a
      0009BD 08               [12] 3184 	inc	r0
      0009BE A6 05            [24] 3185 	mov	@r0,ar5
      0009C0 E5*00            [12] 3186 	mov	a,_bp
      0009C2 24 08            [12] 3187 	add	a,#0x08
      0009C4 F8               [12] 3188 	mov	r0,a
      0009C5 86 02            [24] 3189 	mov	ar2,@r0
      0009C7 08               [12] 3190 	inc	r0
      0009C8 86 04            [24] 3191 	mov	ar4,@r0
      0009CA 08               [12] 3192 	inc	r0
      0009CB 86 05            [24] 3193 	mov	ar5,@r0
      0009CD 8A 82            [24] 3194 	mov	dpl,r2
      0009CF 8C 83            [24] 3195 	mov	dph,r4
      0009D1 8D F0            [24] 3196 	mov	b,r5
      0009D3 12r00r00         [24] 3197 	lcall	__gptrget
      0009D6 FA               [12] 3198 	mov	r2,a
      0009D7 A3               [24] 3199 	inc	dptr
      0009D8 12r00r00         [24] 3200 	lcall	__gptrget
      0009DB FC               [12] 3201 	mov	r4,a
      0009DC 8A 82            [24] 3202 	mov	dpl,r2
      0009DE 8C 83            [24] 3203 	mov	dph,r4
      0009E0 12r00r46         [24] 3204 	lcall	_u2f_hid_set_len
                           0009E3  3205 	C$u2f_hid.c$395$3$177 ==.
                                   3206 ;	D:\Freelancer_projects\jan333\sdcc_project\src\u2f_hid.c:395: if (hid_layer.bytes_buffered >= U2FHID_LEN(req))
      0009E3 90r00r0A         [24] 3207 	mov	dptr,#(_hid_layer + 0x000a)
      0009E6 E0               [24] 3208 	movx	a,@dptr
      0009E7 FF               [12] 3209 	mov	r7,a
      0009E8 A3               [24] 3210 	inc	dptr
      0009E9 E0               [24] 3211 	movx	a,@dptr
      0009EA FE               [12] 3212 	mov	r6,a
      0009EB E5*00            [12] 3213 	mov	a,_bp
      0009ED 24 08            [12] 3214 	add	a,#0x08
      0009EF F8               [12] 3215 	mov	r0,a
      0009F0 86 02            [24] 3216 	mov	ar2,@r0
      0009F2 08               [12] 3217 	inc	r0
      0009F3 86 03            [24] 3218 	mov	ar3,@r0
      0009F5 08               [12] 3219 	inc	r0
      0009F6 86 05            [24] 3220 	mov	ar5,@r0
      0009F8 8A 82            [24] 3221 	mov	dpl,r2
      0009FA 8B 83            [24] 3222 	mov	dph,r3
      0009FC 8D F0            [24] 3223 	mov	b,r5
      0009FE 12r00r00         [24] 3224 	lcall	__gptrget
      000A01 FA               [12] 3225 	mov	r2,a
      000A02 A3               [24] 3226 	inc	dptr
      000A03 12r00r00         [24] 3227 	lcall	__gptrget
      000A06 FB               [12] 3228 	mov	r3,a
      000A07 C3               [12] 3229 	clr	c
      000A08 EF               [12] 3230 	mov	a,r7
      000A09 9A               [12] 3231 	subb	a,r2
      000A0A EE               [12] 3232 	mov	a,r6
      000A0B 9B               [12] 3233 	subb	a,r3
      000A0C 40 17            [24] 3234 	jc	00121$
                           000A0E  3235 	C$u2f_hid.c$397$4$178 ==.
                                   3236 ;	D:\Freelancer_projects\jan333\sdcc_project\src\u2f_hid.c:397: u2f_hid_writeback(hid_layer.buffer,hid_layer.bytes_buffered);
      000A0E C0 07            [24] 3237 	push	ar7
      000A10 C0 06            [24] 3238 	push	ar6
      000A12 90r00r12         [24] 3239 	mov	dptr,#(_hid_layer + 0x0012)
      000A15 75 F0 00         [24] 3240 	mov	b,#0x00
      000A18 12r00rAF         [24] 3241 	lcall	_u2f_hid_writeback
      000A1B 15 81            [12] 3242 	dec	sp
      000A1D 15 81            [12] 3243 	dec	sp
                           000A1F  3244 	C$u2f_hid.c$398$4$178 ==.
                                   3245 ;	D:\Freelancer_projects\jan333\sdcc_project\src\u2f_hid.c:398: u2f_hid_flush();
      000A1F 12r00r95         [24] 3246 	lcall	_u2f_hid_flush
      000A22 02r0Cr2B         [24] 3247 	ljmp	00142$
      000A25                       3248 00121$:
                           000A25  3249 	C$u2f_hid.c$402$4$179 ==.
                                   3250 ;	D:\Freelancer_projects\jan333\sdcc_project\src\u2f_hid.c:402: return 1;
      000A25 75 82 01         [24] 3251 	mov	dpl,#0x01
      000A28 02r0Cr40         [24] 3252 	ljmp	00144$
      000A2B                       3253 00129$:
                           000A2B  3254 	C$u2f_hid.c$407$3$180 ==.
                                   3255 ;	D:\Freelancer_projects\jan333\sdcc_project\src\u2f_hid.c:407: if (hid_layer.bytes_buffered + U2FHID_CONT_PAYLOAD_SIZE > BUFFER_SIZE)
      000A2B 74 3B            [12] 3256 	mov	a,#0x3b
      000A2D 2E               [12] 3257 	add	a,r6
      000A2E FC               [12] 3258 	mov	r4,a
      000A2F E4               [12] 3259 	clr	a
      000A30 3F               [12] 3260 	addc	a,r7
      000A31 FD               [12] 3261 	mov	r5,a
      000A32 C3               [12] 3262 	clr	c
      000A33 74 0E            [12] 3263 	mov	a,#0x0e
      000A35 9C               [12] 3264 	subb	a,r4
      000A36 74 01            [12] 3265 	mov	a,#0x01
      000A38 9D               [12] 3266 	subb	a,r5
      000A39 50 18            [24] 3267 	jnc	00124$
                           000A3B  3268 	C$u2f_hid.c$409$4$181 ==.
                                   3269 ;	D:\Freelancer_projects\jan333\sdcc_project\src\u2f_hid.c:409: u2f_hid_writeback(hid_layer.buffer,hid_layer.bytes_buffered);
      000A3B C0 06            [24] 3270 	push	ar6
      000A3D C0 07            [24] 3271 	push	ar7
      000A3F 90r00r12         [24] 3272 	mov	dptr,#(_hid_layer + 0x0012)
      000A42 75 F0 00         [24] 3273 	mov	b,#0x00
      000A45 12r00rAF         [24] 3274 	lcall	_u2f_hid_writeback
      000A48 15 81            [12] 3275 	dec	sp
      000A4A 15 81            [12] 3276 	dec	sp
                           000A4C  3277 	C$u2f_hid.c$410$4$181 ==.
                                   3278 ;	D:\Freelancer_projects\jan333\sdcc_project\src\u2f_hid.c:410: hid_layer.bytes_buffered = 0;
      000A4C 90r00r0A         [24] 3279 	mov	dptr,#(_hid_layer + 0x000a)
      000A4F E4               [12] 3280 	clr	a
      000A50 F0               [24] 3281 	movx	@dptr,a
      000A51 A3               [24] 3282 	inc	dptr
      000A52 F0               [24] 3283 	movx	@dptr,a
      000A53                       3284 00124$:
                           000A53  3285 	C$u2f_hid.c$414$3$180 ==.
                                   3286 ;	D:\Freelancer_projects\jan333\sdcc_project\src\u2f_hid.c:414: buffer_request(req);
      000A53 A8*00            [24] 3287 	mov	r0,_bp
      000A55 08               [12] 3288 	inc	r0
      000A56 86 82            [24] 3289 	mov	dpl,@r0
      000A58 08               [12] 3290 	inc	r0
      000A59 86 83            [24] 3291 	mov	dph,@r0
      000A5B 08               [12] 3292 	inc	r0
      000A5C 86 F0            [24] 3293 	mov	b,@r0
      000A5E 12r06r23         [24] 3294 	lcall	_buffer_request
                           000A61  3295 	C$u2f_hid.c$415$3$180 ==.
                                   3296 ;	D:\Freelancer_projects\jan333\sdcc_project\src\u2f_hid.c:415: if (hid_layer.bytes_buffered + hid_layer.bytes_written >= hid_layer.req_len)
      000A61 90r00r0A         [24] 3297 	mov	dptr,#(_hid_layer + 0x000a)
      000A64 E0               [24] 3298 	movx	a,@dptr
      000A65 FE               [12] 3299 	mov	r6,a
      000A66 A3               [24] 3300 	inc	dptr
      000A67 E0               [24] 3301 	movx	a,@dptr
      000A68 FF               [12] 3302 	mov	r7,a
      000A69 90r00r0E         [24] 3303 	mov	dptr,#(_hid_layer + 0x000e)
      000A6C E0               [24] 3304 	movx	a,@dptr
      000A6D FC               [12] 3305 	mov	r4,a
      000A6E A3               [24] 3306 	inc	dptr
      000A6F E0               [24] 3307 	movx	a,@dptr
      000A70 FD               [12] 3308 	mov	r5,a
      000A71 EC               [12] 3309 	mov	a,r4
      000A72 2E               [12] 3310 	add	a,r6
      000A73 FC               [12] 3311 	mov	r4,a
      000A74 ED               [12] 3312 	mov	a,r5
      000A75 3F               [12] 3313 	addc	a,r7
      000A76 FD               [12] 3314 	mov	r5,a
      000A77 90r00r0C         [24] 3315 	mov	dptr,#(_hid_layer + 0x000c)
      000A7A E0               [24] 3316 	movx	a,@dptr
      000A7B FA               [12] 3317 	mov	r2,a
      000A7C A3               [24] 3318 	inc	dptr
      000A7D E0               [24] 3319 	movx	a,@dptr
      000A7E FB               [12] 3320 	mov	r3,a
      000A7F C3               [12] 3321 	clr	c
      000A80 EC               [12] 3322 	mov	a,r4
      000A81 9A               [12] 3323 	subb	a,r2
      000A82 ED               [12] 3324 	mov	a,r5
      000A83 9B               [12] 3325 	subb	a,r3
      000A84 40 17            [24] 3326 	jc	00126$
                           000A86  3327 	C$u2f_hid.c$417$4$182 ==.
                                   3328 ;	D:\Freelancer_projects\jan333\sdcc_project\src\u2f_hid.c:417: u2f_hid_writeback(hid_layer.buffer,hid_layer.bytes_buffered);
      000A86 C0 06            [24] 3329 	push	ar6
      000A88 C0 07            [24] 3330 	push	ar7
      000A8A 90r00r12         [24] 3331 	mov	dptr,#(_hid_layer + 0x0012)
      000A8D 75 F0 00         [24] 3332 	mov	b,#0x00
      000A90 12r00rAF         [24] 3333 	lcall	_u2f_hid_writeback
      000A93 15 81            [12] 3334 	dec	sp
      000A95 15 81            [12] 3335 	dec	sp
                           000A97  3336 	C$u2f_hid.c$418$4$182 ==.
                                   3337 ;	D:\Freelancer_projects\jan333\sdcc_project\src\u2f_hid.c:418: u2f_hid_flush();
      000A97 12r00r95         [24] 3338 	lcall	_u2f_hid_flush
      000A9A 02r0Cr2B         [24] 3339 	ljmp	00142$
      000A9D                       3340 00126$:
                           000A9D  3341 	C$u2f_hid.c$422$4$183 ==.
                                   3342 ;	D:\Freelancer_projects\jan333\sdcc_project\src\u2f_hid.c:422: return 1;
      000A9D 75 82 01         [24] 3343 	mov	dpl,#0x01
      000AA0 02r0Cr40         [24] 3344 	ljmp	00144$
                           000AA3  3345 	C$u2f_hid.c$429$2$167 ==.
                                   3346 ;	D:\Freelancer_projects\jan333\sdcc_project\src\u2f_hid.c:429: case U2FHID_WINK:
      000AA3                       3347 00131$:
                           000AA3  3348 	C$u2f_hid.c$430$2$167 ==.
                                   3349 ;	D:\Freelancer_projects\jan333\sdcc_project\src\u2f_hid.c:430: if (U2FHID_LEN(req) != 0)
      000AA3 A8*00            [24] 3350 	mov	r0,_bp
      000AA5 08               [12] 3351 	inc	r0
      000AA6 74 04            [12] 3352 	mov	a,#0x04
      000AA8 26               [12] 3353 	add	a,@r0
      000AA9 FD               [12] 3354 	mov	r5,a
      000AAA E4               [12] 3355 	clr	a
      000AAB 08               [12] 3356 	inc	r0
      000AAC 36               [12] 3357 	addc	a,@r0
      000AAD FE               [12] 3358 	mov	r6,a
      000AAE 08               [12] 3359 	inc	r0
      000AAF 86 07            [24] 3360 	mov	ar7,@r0
      000AB1 0D               [12] 3361 	inc	r5
      000AB2 BD 00 01         [24] 3362 	cjne	r5,#0x00,00222$
      000AB5 0E               [12] 3363 	inc	r6
      000AB6                       3364 00222$:
      000AB6 8D 82            [24] 3365 	mov	dpl,r5
      000AB8 8E 83            [24] 3366 	mov	dph,r6
      000ABA 8F F0            [24] 3367 	mov	b,r7
      000ABC 12r00r00         [24] 3368 	lcall	__gptrget
      000ABF FD               [12] 3369 	mov	r5,a
      000AC0 A3               [24] 3370 	inc	dptr
      000AC1 12r00r00         [24] 3371 	lcall	__gptrget
      000AC4 FE               [12] 3372 	mov	r6,a
      000AC5 4D               [12] 3373 	orl	a,r5
      000AC6 60 1E            [24] 3374 	jz	00133$
                           000AC8  3375 	C$u2f_hid.c$433$3$184 ==.
                                   3376 ;	D:\Freelancer_projects\jan333\sdcc_project\src\u2f_hid.c:433: stamp_error(hid_layer.current_cid, ERR_INVALID_LEN);
      000AC8 90r00r01         [24] 3377 	mov	dptr,#(_hid_layer + 0x0001)
      000ACB E0               [24] 3378 	movx	a,@dptr
      000ACC FC               [12] 3379 	mov	r4,a
      000ACD A3               [24] 3380 	inc	dptr
      000ACE E0               [24] 3381 	movx	a,@dptr
      000ACF FD               [12] 3382 	mov	r5,a
      000AD0 A3               [24] 3383 	inc	dptr
      000AD1 E0               [24] 3384 	movx	a,@dptr
      000AD2 FE               [12] 3385 	mov	r6,a
      000AD3 A3               [24] 3386 	inc	dptr
      000AD4 E0               [24] 3387 	movx	a,@dptr
      000AD5 FF               [12] 3388 	mov	r7,a
      000AD6 74 03            [12] 3389 	mov	a,#0x03
      000AD8 C0 E0            [24] 3390 	push	acc
      000ADA 8C 82            [24] 3391 	mov	dpl,r4
      000ADC 8D 83            [24] 3392 	mov	dph,r5
      000ADE 8E F0            [24] 3393 	mov	b,r6
      000AE0 EF               [12] 3394 	mov	a,r7
      000AE1 12r05r28         [24] 3395 	lcall	_stamp_error
      000AE4 15 81            [12] 3396 	dec	sp
      000AE6                       3397 00133$:
                           000AE6  3398 	C$u2f_hid.c$435$2$167 ==.
                                   3399 ;	D:\Freelancer_projects\jan333\sdcc_project\src\u2f_hid.c:435: u2f_hid_set_len(0);
      000AE6 90 00 00         [24] 3400 	mov	dptr,#0x0000
      000AE9 12r00r46         [24] 3401 	lcall	_u2f_hid_set_len
                           000AEC  3402 	C$u2f_hid.c$436$2$167 ==.
                                   3403 ;	D:\Freelancer_projects\jan333\sdcc_project\src\u2f_hid.c:436: u2f_hid_writeback(NULL, 0);
      000AEC E4               [12] 3404 	clr	a
      000AED C0 E0            [24] 3405 	push	acc
      000AEF C0 E0            [24] 3406 	push	acc
      000AF1 90 00 00         [24] 3407 	mov	dptr,#0x0000
      000AF4 75 F0 00         [24] 3408 	mov	b,#0x00
      000AF7 12r00rAF         [24] 3409 	lcall	_u2f_hid_writeback
      000AFA 15 81            [12] 3410 	dec	sp
      000AFC 15 81            [12] 3411 	dec	sp
                           000AFE  3412 	C$u2f_hid.c$437$2$167 ==.
                                   3413 ;	D:\Freelancer_projects\jan333\sdcc_project\src\u2f_hid.c:437: u2f_hid_flush();
      000AFE 12r00r95         [24] 3414 	lcall	_u2f_hid_flush
                           000B01  3415 	C$u2f_hid.c$438$2$167 ==.
                                   3416 ;	D:\Freelancer_projects\jan333\sdcc_project\src\u2f_hid.c:438: app_wink(U2F_COLOR_WINK);
      000B01 90 00 00         [24] 3417 	mov	dptr,#0x0000
      000B04 75 F0 12         [24] 3418 	mov	b,#0x12
      000B07 E4               [12] 3419 	clr	a
      000B08 12r00r00         [24] 3420 	lcall	_app_wink
                           000B0B  3421 	C$u2f_hid.c$439$2$167 ==.
                                   3422 ;	D:\Freelancer_projects\jan333\sdcc_project\src\u2f_hid.c:439: break;
      000B0B 02r0Cr2B         [24] 3423 	ljmp	00142$
                           000B0E  3424 	C$u2f_hid.c$442$2$167 ==.
                                   3425 ;	D:\Freelancer_projects\jan333\sdcc_project\src\u2f_hid.c:442: case U2FHID_LOCK:
      000B0E                       3426 00134$:
                           000B0E  3427 	C$u2f_hid.c$444$2$167 ==.
                                   3428 ;	D:\Freelancer_projects\jan333\sdcc_project\src\u2f_hid.c:444: secs = req->pkt.init.payload[0];
      000B0E A8*00            [24] 3429 	mov	r0,_bp
      000B10 08               [12] 3430 	inc	r0
      000B11 74 04            [12] 3431 	mov	a,#0x04
      000B13 26               [12] 3432 	add	a,@r0
      000B14 FD               [12] 3433 	mov	r5,a
      000B15 E4               [12] 3434 	clr	a
      000B16 08               [12] 3435 	inc	r0
      000B17 36               [12] 3436 	addc	a,@r0
      000B18 FE               [12] 3437 	mov	r6,a
      000B19 08               [12] 3438 	inc	r0
      000B1A 86 07            [24] 3439 	mov	ar7,@r0
      000B1C 74 03            [12] 3440 	mov	a,#0x03
      000B1E 2D               [12] 3441 	add	a,r5
      000B1F FD               [12] 3442 	mov	r5,a
      000B20 E4               [12] 3443 	clr	a
      000B21 3E               [12] 3444 	addc	a,r6
      000B22 FE               [12] 3445 	mov	r6,a
      000B23 8D 82            [24] 3446 	mov	dpl,r5
      000B25 8E 83            [24] 3447 	mov	dph,r6
      000B27 8F F0            [24] 3448 	mov	b,r7
      000B29 12r00r00         [24] 3449 	lcall	__gptrget
                           000B2C  3450 	C$u2f_hid.c$445$2$167 ==.
                                   3451 ;	D:\Freelancer_projects\jan333\sdcc_project\src\u2f_hid.c:445: if (secs > 10)
      000B2C FF               [12] 3452 	mov  r7,a
      000B2D 24 F5            [12] 3453 	add	a,#0xff - 0x0a
      000B2F 50 21            [24] 3454 	jnc	00139$
                           000B31  3455 	C$u2f_hid.c$447$3$185 ==.
                                   3456 ;	D:\Freelancer_projects\jan333\sdcc_project\src\u2f_hid.c:447: stamp_error(hid_layer.current_cid, ERR_INVALID_PAR);
      000B31 90r00r01         [24] 3457 	mov	dptr,#(_hid_layer + 0x0001)
      000B34 E0               [24] 3458 	movx	a,@dptr
      000B35 FB               [12] 3459 	mov	r3,a
      000B36 A3               [24] 3460 	inc	dptr
      000B37 E0               [24] 3461 	movx	a,@dptr
      000B38 FC               [12] 3462 	mov	r4,a
      000B39 A3               [24] 3463 	inc	dptr
      000B3A E0               [24] 3464 	movx	a,@dptr
      000B3B FD               [12] 3465 	mov	r5,a
      000B3C A3               [24] 3466 	inc	dptr
      000B3D E0               [24] 3467 	movx	a,@dptr
      000B3E FE               [12] 3468 	mov	r6,a
      000B3F 74 02            [12] 3469 	mov	a,#0x02
      000B41 C0 E0            [24] 3470 	push	acc
      000B43 8B 82            [24] 3471 	mov	dpl,r3
      000B45 8C 83            [24] 3472 	mov	dph,r4
      000B47 8D F0            [24] 3473 	mov	b,r5
      000B49 EE               [12] 3474 	mov	a,r6
      000B4A 12r05r28         [24] 3475 	lcall	_stamp_error
      000B4D 15 81            [12] 3476 	dec	sp
      000B4F 02r0Cr2B         [24] 3477 	ljmp	00142$
      000B52                       3478 00139$:
                           000B52  3479 	C$u2f_hid.c$451$3$186 ==.
                                   3480 ;	D:\Freelancer_projects\jan333\sdcc_project\src\u2f_hid.c:451: if (secs)
      000B52 EF               [12] 3481 	mov	a,r7
      000B53 60 4E            [24] 3482 	jz	00136$
                           000B55  3483 	C$u2f_hid.c$453$4$187 ==.
                                   3484 ;	D:\Freelancer_projects\jan333\sdcc_project\src\u2f_hid.c:453: _hid_lock_cid = hid_layer.current_cid;
      000B55 90r00r01         [24] 3485 	mov	dptr,#(_hid_layer + 0x0001)
      000B58 E0               [24] 3486 	movx	a,@dptr
      000B59 FB               [12] 3487 	mov	r3,a
      000B5A A3               [24] 3488 	inc	dptr
      000B5B E0               [24] 3489 	movx	a,@dptr
      000B5C FC               [12] 3490 	mov	r4,a
      000B5D A3               [24] 3491 	inc	dptr
      000B5E E0               [24] 3492 	movx	a,@dptr
      000B5F FD               [12] 3493 	mov	r5,a
      000B60 A3               [24] 3494 	inc	dptr
      000B61 E0               [24] 3495 	movx	a,@dptr
      000B62 FE               [12] 3496 	mov	r6,a
      000B63 90r00r04         [24] 3497 	mov	dptr,#__hid_lock_cid
      000B66 EB               [12] 3498 	mov	a,r3
      000B67 F0               [24] 3499 	movx	@dptr,a
      000B68 EC               [12] 3500 	mov	a,r4
      000B69 A3               [24] 3501 	inc	dptr
      000B6A F0               [24] 3502 	movx	@dptr,a
      000B6B ED               [12] 3503 	mov	a,r5
      000B6C A3               [24] 3504 	inc	dptr
      000B6D F0               [24] 3505 	movx	@dptr,a
      000B6E EE               [12] 3506 	mov	a,r6
      000B6F A3               [24] 3507 	inc	dptr
      000B70 F0               [24] 3508 	movx	@dptr,a
                           000B71  3509 	C$u2f_hid.c$454$4$187 ==.
                                   3510 ;	D:\Freelancer_projects\jan333\sdcc_project\src\u2f_hid.c:454: _hid_lockt = get_ms() + 1000 * secs;
      000B71 7E 00            [12] 3511 	mov	r6,#0x00
      000B73 C0 07            [24] 3512 	push	ar7
      000B75 C0 06            [24] 3513 	push	ar6
      000B77 90 03 E8         [24] 3514 	mov	dptr,#0x03e8
      000B7A 12r00r00         [24] 3515 	lcall	__mulint
      000B7D AE 82            [24] 3516 	mov	r6,dpl
      000B7F AF 83            [24] 3517 	mov	r7,dph
      000B81 15 81            [12] 3518 	dec	sp
      000B83 15 81            [12] 3519 	dec	sp
      000B85 EF               [12] 3520 	mov	a,r7
      000B86 33               [12] 3521 	rlc	a
      000B87 95 E0            [12] 3522 	subb	a,acc
      000B89 FD               [12] 3523 	mov	r5,a
      000B8A FC               [12] 3524 	mov	r4,a
      000B8B 90r00r00         [24] 3525 	mov	dptr,#__hid_lockt
      000B8E EE               [12] 3526 	mov	a,r6
      000B8F 25*00            [12] 3527 	add	a,__MS_
      000B91 F0               [24] 3528 	movx	@dptr,a
      000B92 EF               [12] 3529 	mov	a,r7
      000B93 35*01            [12] 3530 	addc	a,(__MS_ + 1)
      000B95 A3               [24] 3531 	inc	dptr
      000B96 F0               [24] 3532 	movx	@dptr,a
      000B97 ED               [12] 3533 	mov	a,r5
      000B98 35*02            [12] 3534 	addc	a,(__MS_ + 2)
      000B9A A3               [24] 3535 	inc	dptr
      000B9B F0               [24] 3536 	movx	@dptr,a
      000B9C EC               [12] 3537 	mov	a,r4
      000B9D 35*03            [12] 3538 	addc	a,(__MS_ + 3)
      000B9F A3               [24] 3539 	inc	dptr
      000BA0 F0               [24] 3540 	movx	@dptr,a
      000BA1 80 1D            [24] 3541 	sjmp	00137$
      000BA3                       3542 00136$:
                           000BA3  3543 	C$u2f_hid.c$459$4$188 ==.
                                   3544 ;	D:\Freelancer_projects\jan333\sdcc_project\src\u2f_hid.c:459: _hid_lockt = get_ms();
      000BA3 90r00r00         [24] 3545 	mov	dptr,#__hid_lockt
      000BA6 E5*00            [12] 3546 	mov	a,__MS_
      000BA8 F0               [24] 3547 	movx	@dptr,a
      000BA9 E5*01            [12] 3548 	mov	a,(__MS_ + 1)
      000BAB A3               [24] 3549 	inc	dptr
      000BAC F0               [24] 3550 	movx	@dptr,a
      000BAD E5*02            [12] 3551 	mov	a,(__MS_ + 2)
      000BAF A3               [24] 3552 	inc	dptr
      000BB0 F0               [24] 3553 	movx	@dptr,a
      000BB1 E5*03            [12] 3554 	mov	a,(__MS_ + 3)
      000BB3 A3               [24] 3555 	inc	dptr
      000BB4 F0               [24] 3556 	movx	@dptr,a
                           000BB5  3557 	C$u2f_hid.c$460$4$188 ==.
                                   3558 ;	D:\Freelancer_projects\jan333\sdcc_project\src\u2f_hid.c:460: _hid_lock_cid = 0;
      000BB5 90r00r04         [24] 3559 	mov	dptr,#__hid_lock_cid
      000BB8 E4               [12] 3560 	clr	a
      000BB9 F0               [24] 3561 	movx	@dptr,a
      000BBA A3               [24] 3562 	inc	dptr
      000BBB F0               [24] 3563 	movx	@dptr,a
      000BBC A3               [24] 3564 	inc	dptr
      000BBD F0               [24] 3565 	movx	@dptr,a
      000BBE A3               [24] 3566 	inc	dptr
      000BBF F0               [24] 3567 	movx	@dptr,a
      000BC0                       3568 00137$:
                           000BC0  3569 	C$u2f_hid.c$462$3$186 ==.
                                   3570 ;	D:\Freelancer_projects\jan333\sdcc_project\src\u2f_hid.c:462: hid_layer.current_cmd = U2FHID_LOCK;
      000BC0 90r00r05         [24] 3571 	mov	dptr,#(_hid_layer + 0x0005)
      000BC3 74 84            [12] 3572 	mov	a,#0x84
      000BC5 F0               [24] 3573 	movx	@dptr,a
                           000BC6  3574 	C$u2f_hid.c$463$3$186 ==.
                                   3575 ;	D:\Freelancer_projects\jan333\sdcc_project\src\u2f_hid.c:463: u2f_hid_set_len(0);
      000BC6 90 00 00         [24] 3576 	mov	dptr,#0x0000
      000BC9 12r00r46         [24] 3577 	lcall	_u2f_hid_set_len
                           000BCC  3578 	C$u2f_hid.c$464$3$186 ==.
                                   3579 ;	D:\Freelancer_projects\jan333\sdcc_project\src\u2f_hid.c:464: u2f_hid_writeback(NULL, 0);
      000BCC E4               [12] 3580 	clr	a
      000BCD C0 E0            [24] 3581 	push	acc
      000BCF C0 E0            [24] 3582 	push	acc
      000BD1 90 00 00         [24] 3583 	mov	dptr,#0x0000
      000BD4 75 F0 00         [24] 3584 	mov	b,#0x00
      000BD7 12r00rAF         [24] 3585 	lcall	_u2f_hid_writeback
      000BDA 15 81            [12] 3586 	dec	sp
      000BDC 15 81            [12] 3587 	dec	sp
                           000BDE  3588 	C$u2f_hid.c$465$3$186 ==.
                                   3589 ;	D:\Freelancer_projects\jan333\sdcc_project\src\u2f_hid.c:465: u2f_hid_flush();
      000BDE 12r00r95         [24] 3590 	lcall	_u2f_hid_flush
                           000BE1  3591 	C$u2f_hid.c$467$2$167 ==.
                                   3592 ;	D:\Freelancer_projects\jan333\sdcc_project\src\u2f_hid.c:467: break;
                           000BE1  3593 	C$u2f_hid.c$469$2$167 ==.
                                   3594 ;	D:\Freelancer_projects\jan333\sdcc_project\src\u2f_hid.c:469: default:
      000BE1 80 48            [24] 3595 	sjmp	00142$
      000BE3                       3596 00141$:
                           000BE3  3597 	C$u2f_hid.c$470$2$167 ==.
                                   3598 ;	D:\Freelancer_projects\jan333\sdcc_project\src\u2f_hid.c:470: set_app_error(ERROR_HID_INVALID_CMD);
      000BE3 75 82 18         [24] 3599 	mov	dpl,#0x18
      000BE6 12r00r00         [24] 3600 	lcall	_set_app_error
                           000BE9  3601 	C$u2f_hid.c$471$2$167 ==.
                                   3602 ;	D:\Freelancer_projects\jan333\sdcc_project\src\u2f_hid.c:471: stamp_error(hid_layer.current_cid, ERR_INVALID_CMD);
      000BE9 90r00r01         [24] 3603 	mov	dptr,#(_hid_layer + 0x0001)
      000BEC E0               [24] 3604 	movx	a,@dptr
      000BED FC               [12] 3605 	mov	r4,a
      000BEE A3               [24] 3606 	inc	dptr
      000BEF E0               [24] 3607 	movx	a,@dptr
      000BF0 FD               [12] 3608 	mov	r5,a
      000BF1 A3               [24] 3609 	inc	dptr
      000BF2 E0               [24] 3610 	movx	a,@dptr
      000BF3 FE               [12] 3611 	mov	r6,a
      000BF4 A3               [24] 3612 	inc	dptr
      000BF5 E0               [24] 3613 	movx	a,@dptr
      000BF6 FF               [12] 3614 	mov	r7,a
      000BF7 74 01            [12] 3615 	mov	a,#0x01
      000BF9 C0 E0            [24] 3616 	push	acc
      000BFB 8C 82            [24] 3617 	mov	dpl,r4
      000BFD 8D 83            [24] 3618 	mov	dph,r5
      000BFF 8E F0            [24] 3619 	mov	b,r6
      000C01 EF               [12] 3620 	mov	a,r7
      000C02 12r05r28         [24] 3621 	lcall	_stamp_error
      000C05 15 81            [12] 3622 	dec	sp
                           000C07  3623 	C$u2f_hid.c$472$2$167 ==.
                                   3624 ;	D:\Freelancer_projects\jan333\sdcc_project\src\u2f_hid.c:472: u2f_printb("invalid cmd: ",1,hid_layer.current_cmd);
      000C07 90r00r05         [24] 3625 	mov	dptr,#(_hid_layer + 0x0005)
      000C0A E0               [24] 3626 	movx	a,@dptr
      000C0B FF               [12] 3627 	mov	r7,a
      000C0C 7E 00            [12] 3628 	mov	r6,#0x00
      000C0E C0 07            [24] 3629 	push	ar7
      000C10 C0 06            [24] 3630 	push	ar6
      000C12 74 01            [12] 3631 	mov	a,#0x01
      000C14 C0 E0            [24] 3632 	push	acc
      000C16 74r00            [12] 3633 	mov	a,#___str_0
      000C18 C0 E0            [24] 3634 	push	acc
      000C1A 74s00            [12] 3635 	mov	a,#(___str_0 >> 8)
      000C1C C0 E0            [24] 3636 	push	acc
      000C1E 74 80            [12] 3637 	mov	a,#0x80
      000C20 C0 E0            [24] 3638 	push	acc
      000C22 12r00r00         [24] 3639 	lcall	_u2f_printb
      000C25 E5 81            [12] 3640 	mov	a,sp
      000C27 24 FA            [12] 3641 	add	a,#0xfa
      000C29 F5 81            [12] 3642 	mov	sp,a
                           000C2B  3643 	C$u2f_hid.c$473$1$166 ==.
                                   3644 ;	D:\Freelancer_projects\jan333\sdcc_project\src\u2f_hid.c:473: }
      000C2B                       3645 00142$:
                           000C2B  3646 	C$u2f_hid.c$475$1$166 ==.
                                   3647 ;	D:\Freelancer_projects\jan333\sdcc_project\src\u2f_hid.c:475: return u2f_hid_busy();
      000C2B 90r00r0C         [24] 3648 	mov	dptr,#__hid_in_session
      000C2E E0               [24] 3649 	movx	a,@dptr
      000C2F FF               [12] 3650 	mov	r7,a
      000C30 F5 82            [12] 3651 	mov	dpl,a
                           000C32  3652 	C$u2f_hid.c$477$1$166 ==.
                                   3653 ;	D:\Freelancer_projects\jan333\sdcc_project\src\u2f_hid.c:477: fail:
      000C32 80 0C            [24] 3654 	sjmp	00144$
      000C34                       3655 00143$:
                           000C34  3656 	C$u2f_hid.c$478$1$166 ==.
                                   3657 ;	D:\Freelancer_projects\jan333\sdcc_project\src\u2f_hid.c:478: u2f_prints("U2F HID FAIL\r\n");
      000C34 90r00r0E         [24] 3658 	mov	dptr,#___str_1
      000C37 75 F0 80         [24] 3659 	mov	b,#0x80
      000C3A 12r00r00         [24] 3660 	lcall	_u2f_prints
                           000C3D  3661 	C$u2f_hid.c$479$1$166 ==.
                                   3662 ;	D:\Freelancer_projects\jan333\sdcc_project\src\u2f_hid.c:479: return 0;
      000C3D 75 82 00         [24] 3663 	mov	dpl,#0x00
      000C40                       3664 00144$:
      000C40 85*00 81         [24] 3665 	mov	sp,_bp
      000C43 D0*00            [24] 3666 	pop	_bp
                           000C45  3667 	C$u2f_hid.c$480$1$166 ==.
                           000C45  3668 	XFu2f_hid$hid_u2f_parse$0$0 ==.
      000C45 22               [24] 3669 	ret
                                   3670 ;------------------------------------------------------------
                                   3671 ;Allocation info for local variables in function 'u2f_hid_check_timeouts'
                                   3672 ;------------------------------------------------------------
                                   3673 ;i                         Allocated to registers r7 
                                   3674 ;------------------------------------------------------------
                           000C46  3675 	G$u2f_hid_check_timeouts$0$0 ==.
                           000C46  3676 	C$u2f_hid.c$482$1$166 ==.
                                   3677 ;	D:\Freelancer_projects\jan333\sdcc_project\src\u2f_hid.c:482: void u2f_hid_check_timeouts()
                                   3678 ;	-----------------------------------------
                                   3679 ;	 function u2f_hid_check_timeouts
                                   3680 ;	-----------------------------------------
      000C46                       3681 _u2f_hid_check_timeouts:
                           000C46  3682 	C$u2f_hid.c$485$3$191 ==.
                                   3683 ;	D:\Freelancer_projects\jan333\sdcc_project\src\u2f_hid.c:485: for(i = 0; i < CID_MAX; i++)
      000C46 7F 00            [12] 3684 	mov	r7,#0x00
      000C48                       3685 00105$:
                           000C48  3686 	C$u2f_hid.c$487$2$190 ==.
                                   3687 ;	D:\Freelancer_projects\jan333\sdcc_project\src\u2f_hid.c:487: if (CIDS[i].busy && ((get_ms() - CIDS[i].last_used) >= 750))
      000C48 EF               [12] 3688 	mov	a,r7
      000C49 75 F0 0A         [24] 3689 	mov	b,#0x0a
      000C4C A4               [48] 3690 	mul	ab
      000C4D 24r20            [12] 3691 	add	a,#_CIDS
      000C4F FD               [12] 3692 	mov	r5,a
      000C50 74s01            [12] 3693 	mov	a,#(_CIDS >> 8)
      000C52 35 F0            [12] 3694 	addc	a,b
      000C54 FE               [12] 3695 	mov	r6,a
      000C55 74 08            [12] 3696 	mov	a,#0x08
      000C57 2D               [12] 3697 	add	a,r5
      000C58 FB               [12] 3698 	mov	r3,a
      000C59 E4               [12] 3699 	clr	a
      000C5A 3E               [12] 3700 	addc	a,r6
      000C5B FC               [12] 3701 	mov	r4,a
      000C5C 8B 82            [24] 3702 	mov	dpl,r3
      000C5E 8C 83            [24] 3703 	mov	dph,r4
      000C60 E0               [24] 3704 	movx	a,@dptr
      000C61 70 03            [24] 3705 	jnz	00119$
      000C63 02r0Dr21         [24] 3706 	ljmp	00106$
      000C66                       3707 00119$:
      000C66 8D 82            [24] 3708 	mov	dpl,r5
      000C68 8E 83            [24] 3709 	mov	dph,r6
      000C6A A3               [24] 3710 	inc	dptr
      000C6B A3               [24] 3711 	inc	dptr
      000C6C A3               [24] 3712 	inc	dptr
      000C6D A3               [24] 3713 	inc	dptr
      000C6E E0               [24] 3714 	movx	a,@dptr
      000C6F F9               [12] 3715 	mov	r1,a
      000C70 A3               [24] 3716 	inc	dptr
      000C71 E0               [24] 3717 	movx	a,@dptr
      000C72 FA               [12] 3718 	mov	r2,a
      000C73 A3               [24] 3719 	inc	dptr
      000C74 E0               [24] 3720 	movx	a,@dptr
      000C75 FB               [12] 3721 	mov	r3,a
      000C76 A3               [24] 3722 	inc	dptr
      000C77 E0               [24] 3723 	movx	a,@dptr
      000C78 FC               [12] 3724 	mov	r4,a
      000C79 E5*00            [12] 3725 	mov	a,__MS_
      000C7B C3               [12] 3726 	clr	c
      000C7C 99               [12] 3727 	subb	a,r1
      000C7D F9               [12] 3728 	mov	r1,a
      000C7E E5*01            [12] 3729 	mov	a,(__MS_ + 1)
      000C80 9A               [12] 3730 	subb	a,r2
      000C81 FA               [12] 3731 	mov	r2,a
      000C82 E5*02            [12] 3732 	mov	a,(__MS_ + 2)
      000C84 9B               [12] 3733 	subb	a,r3
      000C85 FB               [12] 3734 	mov	r3,a
      000C86 E5*03            [12] 3735 	mov	a,(__MS_ + 3)
      000C88 9C               [12] 3736 	subb	a,r4
      000C89 FC               [12] 3737 	mov	r4,a
      000C8A C3               [12] 3738 	clr	c
      000C8B E9               [12] 3739 	mov	a,r1
      000C8C 94 EE            [12] 3740 	subb	a,#0xee
      000C8E EA               [12] 3741 	mov	a,r2
      000C8F 94 02            [12] 3742 	subb	a,#0x02
      000C91 EB               [12] 3743 	mov	a,r3
      000C92 94 00            [12] 3744 	subb	a,#0x00
      000C94 EC               [12] 3745 	mov	a,r4
      000C95 94 00            [12] 3746 	subb	a,#0x00
      000C97 50 03            [24] 3747 	jnc	00120$
      000C99 02r0Dr21         [24] 3748 	ljmp	00106$
      000C9C                       3749 00120$:
                           000C9C  3750 	C$u2f_hid.c$489$3$191 ==.
                                   3751 ;	D:\Freelancer_projects\jan333\sdcc_project\src\u2f_hid.c:489: u2f_printlx("timeout cid ",2,CIDS[i].cid,get_ms());
      000C9C 8D 82            [24] 3752 	mov	dpl,r5
      000C9E 8E 83            [24] 3753 	mov	dph,r6
      000CA0 E0               [24] 3754 	movx	a,@dptr
      000CA1 F9               [12] 3755 	mov	r1,a
      000CA2 A3               [24] 3756 	inc	dptr
      000CA3 E0               [24] 3757 	movx	a,@dptr
      000CA4 FA               [12] 3758 	mov	r2,a
      000CA5 A3               [24] 3759 	inc	dptr
      000CA6 E0               [24] 3760 	movx	a,@dptr
      000CA7 FB               [12] 3761 	mov	r3,a
      000CA8 A3               [24] 3762 	inc	dptr
      000CA9 E0               [24] 3763 	movx	a,@dptr
      000CAA FC               [12] 3764 	mov	r4,a
      000CAB C0 07            [24] 3765 	push	ar7
      000CAD C0 06            [24] 3766 	push	ar6
      000CAF C0 05            [24] 3767 	push	ar5
      000CB1 C0*00            [24] 3768 	push	__MS_
      000CB3 C0*01            [24] 3769 	push	(__MS_ + 1)
      000CB5 C0*02            [24] 3770 	push	(__MS_ + 2)
      000CB7 C0*03            [24] 3771 	push	(__MS_ + 3)
      000CB9 C0 01            [24] 3772 	push	ar1
      000CBB C0 02            [24] 3773 	push	ar2
      000CBD C0 03            [24] 3774 	push	ar3
      000CBF C0 04            [24] 3775 	push	ar4
      000CC1 74 02            [12] 3776 	mov	a,#0x02
      000CC3 C0 E0            [24] 3777 	push	acc
      000CC5 74r1D            [12] 3778 	mov	a,#___str_2
      000CC7 C0 E0            [24] 3779 	push	acc
      000CC9 74s00            [12] 3780 	mov	a,#(___str_2 >> 8)
      000CCB C0 E0            [24] 3781 	push	acc
      000CCD 74 80            [12] 3782 	mov	a,#0x80
      000CCF C0 E0            [24] 3783 	push	acc
      000CD1 12r00r00         [24] 3784 	lcall	_u2f_printlx
      000CD4 E5 81            [12] 3785 	mov	a,sp
      000CD6 24 F4            [12] 3786 	add	a,#0xf4
      000CD8 F5 81            [12] 3787 	mov	sp,a
      000CDA D0 05            [24] 3788 	pop	ar5
      000CDC D0 06            [24] 3789 	pop	ar6
                           000CDE  3790 	C$u2f_hid.c$490$3$191 ==.
                                   3791 ;	D:\Freelancer_projects\jan333\sdcc_project\src\u2f_hid.c:490: stamp_error(CIDS[i].cid, ERR_MSG_TIMEOUT);
      000CDE 8D 82            [24] 3792 	mov	dpl,r5
      000CE0 8E 83            [24] 3793 	mov	dph,r6
      000CE2 E0               [24] 3794 	movx	a,@dptr
      000CE3 F9               [12] 3795 	mov	r1,a
      000CE4 A3               [24] 3796 	inc	dptr
      000CE5 E0               [24] 3797 	movx	a,@dptr
      000CE6 FA               [12] 3798 	mov	r2,a
      000CE7 A3               [24] 3799 	inc	dptr
      000CE8 E0               [24] 3800 	movx	a,@dptr
      000CE9 FB               [12] 3801 	mov	r3,a
      000CEA A3               [24] 3802 	inc	dptr
      000CEB E0               [24] 3803 	movx	a,@dptr
      000CEC FC               [12] 3804 	mov	r4,a
      000CED C0 06            [24] 3805 	push	ar6
      000CEF C0 05            [24] 3806 	push	ar5
      000CF1 74 05            [12] 3807 	mov	a,#0x05
      000CF3 C0 E0            [24] 3808 	push	acc
      000CF5 89 82            [24] 3809 	mov	dpl,r1
      000CF7 8A 83            [24] 3810 	mov	dph,r2
      000CF9 8B F0            [24] 3811 	mov	b,r3
      000CFB EC               [12] 3812 	mov	a,r4
      000CFC 12r05r28         [24] 3813 	lcall	_stamp_error
      000CFF 15 81            [12] 3814 	dec	sp
      000D01 D0 05            [24] 3815 	pop	ar5
      000D03 D0 06            [24] 3816 	pop	ar6
                           000D05  3817 	C$u2f_hid.c$491$3$191 ==.
                                   3818 ;	D:\Freelancer_projects\jan333\sdcc_project\src\u2f_hid.c:491: del_cid(CIDS[i].cid);
      000D05 8D 82            [24] 3819 	mov	dpl,r5
      000D07 8E 83            [24] 3820 	mov	dph,r6
      000D09 E0               [24] 3821 	movx	a,@dptr
      000D0A FD               [12] 3822 	mov	r5,a
      000D0B A3               [24] 3823 	inc	dptr
      000D0C E0               [24] 3824 	movx	a,@dptr
      000D0D FE               [12] 3825 	mov	r6,a
      000D0E A3               [24] 3826 	inc	dptr
      000D0F E0               [24] 3827 	movx	a,@dptr
      000D10 FC               [12] 3828 	mov	r4,a
      000D11 A3               [24] 3829 	inc	dptr
      000D12 E0               [24] 3830 	movx	a,@dptr
      000D13 8D 82            [24] 3831 	mov	dpl,r5
      000D15 8E 83            [24] 3832 	mov	dph,r6
      000D17 8C F0            [24] 3833 	mov	b,r4
      000D19 12r04r99         [24] 3834 	lcall	_del_cid
                           000D1C  3835 	C$u2f_hid.c$492$3$191 ==.
                                   3836 ;	D:\Freelancer_projects\jan333\sdcc_project\src\u2f_hid.c:492: u2f_hid_reset_packet();
      000D1C 12r00r53         [24] 3837 	lcall	_u2f_hid_reset_packet
      000D1F D0 07            [24] 3838 	pop	ar7
      000D21                       3839 00106$:
                           000D21  3840 	C$u2f_hid.c$485$1$189 ==.
                                   3841 ;	D:\Freelancer_projects\jan333\sdcc_project\src\u2f_hid.c:485: for(i = 0; i < CID_MAX; i++)
      000D21 0F               [12] 3842 	inc	r7
      000D22 BF 05 00         [24] 3843 	cjne	r7,#0x05,00121$
      000D25                       3844 00121$:
      000D25 50 03            [24] 3845 	jnc	00122$
      000D27 02r0Cr48         [24] 3846 	ljmp	00105$
      000D2A                       3847 00122$:
                           000D2A  3848 	C$u2f_hid.c$496$1$189 ==.
                           000D2A  3849 	XG$u2f_hid_check_timeouts$0$0 ==.
      000D2A 22               [24] 3850 	ret
                                   3851 ;------------------------------------------------------------
                                   3852 ;Allocation info for local variables in function 'u2f_hid_request'
                                   3853 ;------------------------------------------------------------
                                   3854 ;req                       Allocated to stack - _bp +1
                                   3855 ;cid                       Allocated to stack - _bp +8
                                   3856 ;sloc0                     Allocated to stack - _bp +4
                                   3857 ;last_seq                  Allocated with name '_u2f_hid_request_last_seq_1_193'
                                   3858 ;------------------------------------------------------------
                           000D2B  3859 	G$u2f_hid_request$0$0 ==.
                           000D2B  3860 	C$u2f_hid.c$499$1$189 ==.
                                   3861 ;	D:\Freelancer_projects\jan333\sdcc_project\src\u2f_hid.c:499: void u2f_hid_request(struct u2f_hid_msg* req)
                                   3862 ;	-----------------------------------------
                                   3863 ;	 function u2f_hid_request
                                   3864 ;	-----------------------------------------
      000D2B                       3865 _u2f_hid_request:
      000D2B C0*00            [24] 3866 	push	_bp
      000D2D 85 81*00         [24] 3867 	mov	_bp,sp
      000D30 C0 82            [24] 3868 	push	dpl
      000D32 C0 83            [24] 3869 	push	dph
      000D34 C0 F0            [24] 3870 	push	b
      000D36 E5 81            [12] 3871 	mov	a,sp
      000D38 24 07            [12] 3872 	add	a,#0x07
      000D3A F5 81            [12] 3873 	mov	sp,a
                           000D3C  3874 	C$u2f_hid.c$504$1$193 ==.
                                   3875 ;	D:\Freelancer_projects\jan333\sdcc_project\src\u2f_hid.c:504: cid = get_cid(req->cid);
      000D3C A8*00            [24] 3876 	mov	r0,_bp
      000D3E 08               [12] 3877 	inc	r0
      000D3F 86 82            [24] 3878 	mov	dpl,@r0
      000D41 08               [12] 3879 	inc	r0
      000D42 86 83            [24] 3880 	mov	dph,@r0
      000D44 08               [12] 3881 	inc	r0
      000D45 86 F0            [24] 3882 	mov	b,@r0
      000D47 12r00r00         [24] 3883 	lcall	__gptrget
      000D4A FA               [12] 3884 	mov	r2,a
      000D4B A3               [24] 3885 	inc	dptr
      000D4C 12r00r00         [24] 3886 	lcall	__gptrget
      000D4F FB               [12] 3887 	mov	r3,a
      000D50 A3               [24] 3888 	inc	dptr
      000D51 12r00r00         [24] 3889 	lcall	__gptrget
      000D54 FC               [12] 3890 	mov	r4,a
      000D55 A3               [24] 3891 	inc	dptr
      000D56 12r00r00         [24] 3892 	lcall	__gptrget
      000D59 8A 82            [24] 3893 	mov	dpl,r2
      000D5B 8B 83            [24] 3894 	mov	dph,r3
      000D5D 8C F0            [24] 3895 	mov	b,r4
      000D5F 12r04r0E         [24] 3896 	lcall	_get_cid
      000D62 AD 82            [24] 3897 	mov	r5,dpl
      000D64 AE 83            [24] 3898 	mov	r6,dph
      000D66 AF F0            [24] 3899 	mov	r7,b
      000D68 E5*00            [12] 3900 	mov	a,_bp
      000D6A 24 08            [12] 3901 	add	a,#0x08
      000D6C F8               [12] 3902 	mov	r0,a
      000D6D A6 05            [24] 3903 	mov	@r0,ar5
      000D6F 08               [12] 3904 	inc	r0
      000D70 A6 06            [24] 3905 	mov	@r0,ar6
      000D72 08               [12] 3906 	inc	r0
      000D73 A6 07            [24] 3907 	mov	@r0,ar7
                           000D75  3908 	C$u2f_hid.c$507$1$193 ==.
                                   3909 ;	D:\Freelancer_projects\jan333\sdcc_project\src\u2f_hid.c:507: if ((U2FHID_IS_INIT(req->pkt.init.cmd)))
      000D75 A8*00            [24] 3910 	mov	r0,_bp
      000D77 08               [12] 3911 	inc	r0
      000D78 74 04            [12] 3912 	mov	a,#0x04
      000D7A 26               [12] 3913 	add	a,@r0
      000D7B FA               [12] 3914 	mov	r2,a
      000D7C E4               [12] 3915 	clr	a
      000D7D 08               [12] 3916 	inc	r0
      000D7E 36               [12] 3917 	addc	a,@r0
      000D7F FB               [12] 3918 	mov	r3,a
      000D80 08               [12] 3919 	inc	r0
      000D81 86 04            [24] 3920 	mov	ar4,@r0
      000D83 8A 82            [24] 3921 	mov	dpl,r2
      000D85 8B 83            [24] 3922 	mov	dph,r3
      000D87 8C F0            [24] 3923 	mov	b,r4
      000D89 12r00r00         [24] 3924 	lcall	__gptrget
      000D8C FF               [12] 3925 	mov	r7,a
      000D8D 20 E7 03         [24] 3926 	jb	acc.7,00197$
      000D90 02r0Er76         [24] 3927 	ljmp	00111$
      000D93                       3928 00197$:
                           000D93  3929 	C$u2f_hid.c$509$2$194 ==.
                                   3930 ;	D:\Freelancer_projects\jan333\sdcc_project\src\u2f_hid.c:509: if (U2FHID_LEN(req) > 7609)
      000D93 74 01            [12] 3931 	mov	a,#0x01
      000D95 2A               [12] 3932 	add	a,r2
      000D96 FD               [12] 3933 	mov	r5,a
      000D97 E4               [12] 3934 	clr	a
      000D98 3B               [12] 3935 	addc	a,r3
      000D99 FE               [12] 3936 	mov	r6,a
      000D9A 8C 07            [24] 3937 	mov	ar7,r4
      000D9C 8D 82            [24] 3938 	mov	dpl,r5
      000D9E 8E 83            [24] 3939 	mov	dph,r6
      000DA0 8F F0            [24] 3940 	mov	b,r7
      000DA2 12r00r00         [24] 3941 	lcall	__gptrget
      000DA5 FD               [12] 3942 	mov	r5,a
      000DA6 A3               [24] 3943 	inc	dptr
      000DA7 12r00r00         [24] 3944 	lcall	__gptrget
      000DAA FE               [12] 3945 	mov	r6,a
      000DAB C3               [12] 3946 	clr	c
      000DAC 74 B9            [12] 3947 	mov	a,#0xb9
      000DAE 9D               [12] 3948 	subb	a,r5
      000DAF 74 1D            [12] 3949 	mov	a,#0x1d
      000DB1 9E               [12] 3950 	subb	a,r6
      000DB2 50 31            [24] 3951 	jnc	00102$
                           000DB4  3952 	C$u2f_hid.c$511$3$195 ==.
                                   3953 ;	D:\Freelancer_projects\jan333\sdcc_project\src\u2f_hid.c:511: stamp_error(req->cid, ERR_INVALID_LEN);
      000DB4 A8*00            [24] 3954 	mov	r0,_bp
      000DB6 08               [12] 3955 	inc	r0
      000DB7 86 82            [24] 3956 	mov	dpl,@r0
      000DB9 08               [12] 3957 	inc	r0
      000DBA 86 83            [24] 3958 	mov	dph,@r0
      000DBC 08               [12] 3959 	inc	r0
      000DBD 86 F0            [24] 3960 	mov	b,@r0
      000DBF 12r00r00         [24] 3961 	lcall	__gptrget
      000DC2 FF               [12] 3962 	mov	r7,a
      000DC3 A3               [24] 3963 	inc	dptr
      000DC4 12r00r00         [24] 3964 	lcall	__gptrget
      000DC7 FE               [12] 3965 	mov	r6,a
      000DC8 A3               [24] 3966 	inc	dptr
      000DC9 12r00r00         [24] 3967 	lcall	__gptrget
      000DCC FD               [12] 3968 	mov	r5,a
      000DCD A3               [24] 3969 	inc	dptr
      000DCE 12r00r00         [24] 3970 	lcall	__gptrget
      000DD1 FC               [12] 3971 	mov	r4,a
      000DD2 74 03            [12] 3972 	mov	a,#0x03
      000DD4 C0 E0            [24] 3973 	push	acc
      000DD6 8F 82            [24] 3974 	mov	dpl,r7
      000DD8 8E 83            [24] 3975 	mov	dph,r6
      000DDA 8D F0            [24] 3976 	mov	b,r5
      000DDC EC               [12] 3977 	mov	a,r4
      000DDD 12r05r28         [24] 3978 	lcall	_stamp_error
      000DE0 15 81            [12] 3979 	dec	sp
                           000DE2  3980 	C$u2f_hid.c$512$3$195 ==.
                                   3981 ;	D:\Freelancer_projects\jan333\sdcc_project\src\u2f_hid.c:512: return;
      000DE2 02r12r9A         [24] 3982 	ljmp	00138$
      000DE5                       3983 00102$:
                           000DE5  3984 	C$u2f_hid.c$514$2$194 ==.
                                   3985 ;	D:\Freelancer_projects\jan333\sdcc_project\src\u2f_hid.c:514: if (req->pkt.init.cmd != U2FHID_INIT && req->cid != hid_layer.current_cid && u2f_hid_busy())
      000DE5 8A 82            [24] 3986 	mov	dpl,r2
      000DE7 8B 83            [24] 3987 	mov	dph,r3
      000DE9 8C F0            [24] 3988 	mov	b,r4
      000DEB 12r00r00         [24] 3989 	lcall	__gptrget
      000DEE FF               [12] 3990 	mov	r7,a
      000DEF BF 86 03         [24] 3991 	cjne	r7,#0x86,00199$
      000DF2 02r0Er9E         [24] 3992 	ljmp	00112$
      000DF5                       3993 00199$:
      000DF5 C0 02            [24] 3994 	push	ar2
      000DF7 C0 03            [24] 3995 	push	ar3
      000DF9 C0 04            [24] 3996 	push	ar4
      000DFB A8*00            [24] 3997 	mov	r0,_bp
      000DFD 08               [12] 3998 	inc	r0
      000DFE 86 82            [24] 3999 	mov	dpl,@r0
      000E00 08               [12] 4000 	inc	r0
      000E01 86 83            [24] 4001 	mov	dph,@r0
      000E03 08               [12] 4002 	inc	r0
      000E04 86 F0            [24] 4003 	mov	b,@r0
      000E06 E5*00            [12] 4004 	mov	a,_bp
      000E08 24 04            [12] 4005 	add	a,#0x04
      000E0A F9               [12] 4006 	mov	r1,a
      000E0B 12r00r00         [24] 4007 	lcall	__gptrget
      000E0E F7               [12] 4008 	mov	@r1,a
      000E0F A3               [24] 4009 	inc	dptr
      000E10 12r00r00         [24] 4010 	lcall	__gptrget
      000E13 09               [12] 4011 	inc	r1
      000E14 F7               [12] 4012 	mov	@r1,a
      000E15 A3               [24] 4013 	inc	dptr
      000E16 12r00r00         [24] 4014 	lcall	__gptrget
      000E19 09               [12] 4015 	inc	r1
      000E1A F7               [12] 4016 	mov	@r1,a
      000E1B A3               [24] 4017 	inc	dptr
      000E1C 12r00r00         [24] 4018 	lcall	__gptrget
      000E1F 09               [12] 4019 	inc	r1
      000E20 F7               [12] 4020 	mov	@r1,a
      000E21 90r00r01         [24] 4021 	mov	dptr,#(_hid_layer + 0x0001)
      000E24 E0               [24] 4022 	movx	a,@dptr
      000E25 FC               [12] 4023 	mov	r4,a
      000E26 A3               [24] 4024 	inc	dptr
      000E27 E0               [24] 4025 	movx	a,@dptr
      000E28 FD               [12] 4026 	mov	r5,a
      000E29 A3               [24] 4027 	inc	dptr
      000E2A E0               [24] 4028 	movx	a,@dptr
      000E2B FE               [12] 4029 	mov	r6,a
      000E2C A3               [24] 4030 	inc	dptr
      000E2D E0               [24] 4031 	movx	a,@dptr
      000E2E FF               [12] 4032 	mov	r7,a
      000E2F E5*00            [12] 4033 	mov	a,_bp
      000E31 24 04            [12] 4034 	add	a,#0x04
      000E33 F8               [12] 4035 	mov	r0,a
      000E34 E6               [12] 4036 	mov	a,@r0
      000E35 B5 04 17         [24] 4037 	cjne	a,ar4,00200$
      000E38 08               [12] 4038 	inc	r0
      000E39 E6               [12] 4039 	mov	a,@r0
      000E3A B5 05 12         [24] 4040 	cjne	a,ar5,00200$
      000E3D 08               [12] 4041 	inc	r0
      000E3E E6               [12] 4042 	mov	a,@r0
      000E3F B5 06 0D         [24] 4043 	cjne	a,ar6,00200$
      000E42 08               [12] 4044 	inc	r0
      000E43 E6               [12] 4045 	mov	a,@r0
      000E44 B5 07 08         [24] 4046 	cjne	a,ar7,00200$
      000E47 D0 04            [24] 4047 	pop	ar4
      000E49 D0 03            [24] 4048 	pop	ar3
      000E4B D0 02            [24] 4049 	pop	ar2
      000E4D 80 4F            [24] 4050 	sjmp	00112$
      000E4F                       4051 00200$:
      000E4F D0 04            [24] 4052 	pop	ar4
      000E51 D0 03            [24] 4053 	pop	ar3
      000E53 D0 02            [24] 4054 	pop	ar2
      000E55 90r00r0C         [24] 4055 	mov	dptr,#__hid_in_session
      000E58 E0               [24] 4056 	movx	a,@dptr
      000E59 60 43            [24] 4057 	jz	00112$
                           000E5B  4058 	C$u2f_hid.c$516$3$196 ==.
                                   4059 ;	D:\Freelancer_projects\jan333\sdcc_project\src\u2f_hid.c:516: stamp_error(req->cid, ERR_CHANNEL_BUSY);
      000E5B 74 06            [12] 4060 	mov	a,#0x06
      000E5D C0 E0            [24] 4061 	push	acc
      000E5F E5*00            [12] 4062 	mov	a,_bp
      000E61 24 04            [12] 4063 	add	a,#0x04
      000E63 F8               [12] 4064 	mov	r0,a
      000E64 86 82            [24] 4065 	mov	dpl,@r0
      000E66 08               [12] 4066 	inc	r0
      000E67 86 83            [24] 4067 	mov	dph,@r0
      000E69 08               [12] 4068 	inc	r0
      000E6A 86 F0            [24] 4069 	mov	b,@r0
      000E6C 08               [12] 4070 	inc	r0
      000E6D E6               [12] 4071 	mov	a,@r0
      000E6E 12r05r28         [24] 4072 	lcall	_stamp_error
      000E71 15 81            [12] 4073 	dec	sp
                           000E73  4074 	C$u2f_hid.c$517$3$196 ==.
                                   4075 ;	D:\Freelancer_projects\jan333\sdcc_project\src\u2f_hid.c:517: return;
      000E73 02r12r9A         [24] 4076 	ljmp	00138$
      000E76                       4077 00111$:
                           000E76  4078 	C$u2f_hid.c$520$1$193 ==.
                                   4079 ;	D:\Freelancer_projects\jan333\sdcc_project\src\u2f_hid.c:520: else if (cid == NULL || !cid->busy)
      000E76 E5*00            [12] 4080 	mov	a,_bp
      000E78 24 08            [12] 4081 	add	a,#0x08
      000E7A F8               [12] 4082 	mov	r0,a
      000E7B E6               [12] 4083 	mov	a,@r0
      000E7C 08               [12] 4084 	inc	r0
      000E7D 46               [12] 4085 	orl	a,@r0
      000E7E 60 1B            [24] 4086 	jz	00107$
      000E80 E5*00            [12] 4087 	mov	a,_bp
      000E82 24 08            [12] 4088 	add	a,#0x08
      000E84 F8               [12] 4089 	mov	r0,a
      000E85 74 08            [12] 4090 	mov	a,#0x08
      000E87 26               [12] 4091 	add	a,@r0
      000E88 FD               [12] 4092 	mov	r5,a
      000E89 E4               [12] 4093 	clr	a
      000E8A 08               [12] 4094 	inc	r0
      000E8B 36               [12] 4095 	addc	a,@r0
      000E8C FE               [12] 4096 	mov	r6,a
      000E8D 08               [12] 4097 	inc	r0
      000E8E 86 07            [24] 4098 	mov	ar7,@r0
      000E90 8D 82            [24] 4099 	mov	dpl,r5
      000E92 8E 83            [24] 4100 	mov	dph,r6
      000E94 8F F0            [24] 4101 	mov	b,r7
      000E96 12r00r00         [24] 4102 	lcall	__gptrget
      000E99 70 03            [24] 4103 	jnz	00112$
      000E9B                       4104 00107$:
                           000E9B  4105 	C$u2f_hid.c$523$2$197 ==.
                                   4106 ;	D:\Freelancer_projects\jan333\sdcc_project\src\u2f_hid.c:523: return;
      000E9B 02r12r9A         [24] 4107 	ljmp	00138$
      000E9E                       4108 00112$:
                           000E9E  4109 	C$u2f_hid.c$526$1$193 ==.
                                   4110 ;	D:\Freelancer_projects\jan333\sdcc_project\src\u2f_hid.c:526: if (!req->cid)
      000E9E A8*00            [24] 4111 	mov	r0,_bp
      000EA0 08               [12] 4112 	inc	r0
      000EA1 86 82            [24] 4113 	mov	dpl,@r0
      000EA3 08               [12] 4114 	inc	r0
      000EA4 86 83            [24] 4115 	mov	dph,@r0
      000EA6 08               [12] 4116 	inc	r0
      000EA7 86 F0            [24] 4117 	mov	b,@r0
      000EA9 E5*00            [12] 4118 	mov	a,_bp
      000EAB 24 04            [12] 4119 	add	a,#0x04
      000EAD F9               [12] 4120 	mov	r1,a
      000EAE 12r00r00         [24] 4121 	lcall	__gptrget
      000EB1 F7               [12] 4122 	mov	@r1,a
      000EB2 A3               [24] 4123 	inc	dptr
      000EB3 12r00r00         [24] 4124 	lcall	__gptrget
      000EB6 09               [12] 4125 	inc	r1
      000EB7 F7               [12] 4126 	mov	@r1,a
      000EB8 A3               [24] 4127 	inc	dptr
      000EB9 12r00r00         [24] 4128 	lcall	__gptrget
      000EBC 09               [12] 4129 	inc	r1
      000EBD F7               [12] 4130 	mov	@r1,a
      000EBE A3               [24] 4131 	inc	dptr
      000EBF 12r00r00         [24] 4132 	lcall	__gptrget
      000EC2 09               [12] 4133 	inc	r1
      000EC3 F7               [12] 4134 	mov	@r1,a
      000EC4 E5*00            [12] 4135 	mov	a,_bp
      000EC6 24 04            [12] 4136 	add	a,#0x04
      000EC8 F8               [12] 4137 	mov	r0,a
      000EC9 E6               [12] 4138 	mov	a,@r0
      000ECA 08               [12] 4139 	inc	r0
      000ECB 46               [12] 4140 	orl	a,@r0
      000ECC 08               [12] 4141 	inc	r0
      000ECD 46               [12] 4142 	orl	a,@r0
      000ECE 08               [12] 4143 	inc	r0
      000ECF 46               [12] 4144 	orl	a,@r0
      000ED0 70 1B            [24] 4145 	jnz	00114$
                           000ED2  4146 	C$u2f_hid.c$528$2$198 ==.
                                   4147 ;	D:\Freelancer_projects\jan333\sdcc_project\src\u2f_hid.c:528: stamp_error(req->cid, ERR_SYNC_FAIL);
      000ED2 74 0B            [12] 4148 	mov	a,#0x0b
      000ED4 C0 E0            [24] 4149 	push	acc
      000ED6 E5*00            [12] 4150 	mov	a,_bp
      000ED8 24 04            [12] 4151 	add	a,#0x04
      000EDA F8               [12] 4152 	mov	r0,a
      000EDB 86 82            [24] 4153 	mov	dpl,@r0
      000EDD 08               [12] 4154 	inc	r0
      000EDE 86 83            [24] 4155 	mov	dph,@r0
      000EE0 08               [12] 4156 	inc	r0
      000EE1 86 F0            [24] 4157 	mov	b,@r0
      000EE3 08               [12] 4158 	inc	r0
      000EE4 E6               [12] 4159 	mov	a,@r0
      000EE5 12r05r28         [24] 4160 	lcall	_stamp_error
      000EE8 15 81            [12] 4161 	dec	sp
                           000EEA  4162 	C$u2f_hid.c$529$2$198 ==.
                                   4163 ;	D:\Freelancer_projects\jan333\sdcc_project\src\u2f_hid.c:529: return;
      000EEA 02r12r9A         [24] 4164 	ljmp	00138$
      000EED                       4165 00114$:
                           000EED  4166 	C$u2f_hid.c$534$1$193 ==.
                                   4167 ;	D:\Freelancer_projects\jan333\sdcc_project\src\u2f_hid.c:534: if (req->cid == U2FHID_BROADCAST)
      000EED E5*00            [12] 4168 	mov	a,_bp
      000EEF 24 04            [12] 4169 	add	a,#0x04
      000EF1 F8               [12] 4170 	mov	r0,a
      000EF2 B6 FF 52         [24] 4171 	cjne	@r0,#0xff,00123$
      000EF5 08               [12] 4172 	inc	r0
      000EF6 B6 FF 4E         [24] 4173 	cjne	@r0,#0xff,00123$
      000EF9 08               [12] 4174 	inc	r0
      000EFA B6 FF 4A         [24] 4175 	cjne	@r0,#0xff,00123$
      000EFD 08               [12] 4176 	inc	r0
      000EFE B6 FF 46         [24] 4177 	cjne	@r0,#0xff,00123$
                           000F01  4178 	C$u2f_hid.c$536$2$199 ==.
                                   4179 ;	D:\Freelancer_projects\jan333\sdcc_project\src\u2f_hid.c:536: if (!(req->pkt.init.cmd == U2FHID_INIT))
      000F01 8A 82            [24] 4180 	mov	dpl,r2
      000F03 8B 83            [24] 4181 	mov	dph,r3
      000F05 8C F0            [24] 4182 	mov	b,r4
      000F07 12r00r00         [24] 4183 	lcall	__gptrget
      000F0A FF               [12] 4184 	mov	r7,a
      000F0B BF 86 02         [24] 4185 	cjne	r7,#0x86,00207$
      000F0E 80 1B            [24] 4186 	sjmp	00116$
      000F10                       4187 00207$:
                           000F10  4188 	C$u2f_hid.c$538$3$200 ==.
                                   4189 ;	D:\Freelancer_projects\jan333\sdcc_project\src\u2f_hid.c:538: stamp_error(req->cid, ERR_SYNC_FAIL);
      000F10 74 0B            [12] 4190 	mov	a,#0x0b
      000F12 C0 E0            [24] 4191 	push	acc
      000F14 E5*00            [12] 4192 	mov	a,_bp
      000F16 24 04            [12] 4193 	add	a,#0x04
      000F18 F8               [12] 4194 	mov	r0,a
      000F19 86 82            [24] 4195 	mov	dpl,@r0
      000F1B 08               [12] 4196 	inc	r0
      000F1C 86 83            [24] 4197 	mov	dph,@r0
      000F1E 08               [12] 4198 	inc	r0
      000F1F 86 F0            [24] 4199 	mov	b,@r0
      000F21 08               [12] 4200 	inc	r0
      000F22 E6               [12] 4201 	mov	a,@r0
      000F23 12r05r28         [24] 4202 	lcall	_stamp_error
      000F26 15 81            [12] 4203 	dec	sp
                           000F28  4204 	C$u2f_hid.c$539$3$200 ==.
                                   4205 ;	D:\Freelancer_projects\jan333\sdcc_project\src\u2f_hid.c:539: return;
      000F28 02r12r9A         [24] 4206 	ljmp	00138$
      000F2B                       4207 00116$:
                           000F2B  4208 	C$u2f_hid.c$541$2$199 ==.
                                   4209 ;	D:\Freelancer_projects\jan333\sdcc_project\src\u2f_hid.c:541: cid = &BROADCAST_CID;
      000F2B E5*00            [12] 4210 	mov	a,_bp
      000F2D 24 08            [12] 4211 	add	a,#0x08
      000F2F F8               [12] 4212 	mov	r0,a
      000F30 76r48            [12] 4213 	mov	@r0,#(_CIDS + 0x0028)
      000F32 08               [12] 4214 	inc	r0
      000F33 76s01            [12] 4215 	mov	@r0,#((_CIDS + 0x0028) >> 8)
      000F35 08               [12] 4216 	inc	r0
      000F36 76 00            [12] 4217 	mov	@r0,#0x00
                           000F38  4218 	C$u2f_hid.c$542$2$199 ==.
                                   4219 ;	D:\Freelancer_projects\jan333\sdcc_project\src\u2f_hid.c:542: BROADCAST_CID.cid = U2FHID_BROADCAST;
      000F38 90r01r48         [24] 4220 	mov	dptr,#(_CIDS + 0x0028)
      000F3B 74 FF            [12] 4221 	mov	a,#0xff
      000F3D F0               [24] 4222 	movx	@dptr,a
      000F3E A3               [24] 4223 	inc	dptr
      000F3F F0               [24] 4224 	movx	@dptr,a
      000F40 A3               [24] 4225 	inc	dptr
      000F41 F0               [24] 4226 	movx	@dptr,a
      000F42 A3               [24] 4227 	inc	dptr
      000F43 F0               [24] 4228 	movx	@dptr,a
      000F44 02r0FrFA         [24] 4229 	ljmp	00124$
      000F47                       4230 00123$:
                           000F47  4231 	C$u2f_hid.c$544$1$193 ==.
                                   4232 ;	D:\Freelancer_projects\jan333\sdcc_project\src\u2f_hid.c:544: else if (U2FHID_IS_INIT(req->pkt.init.cmd) && cid == NULL)
      000F47 8A 82            [24] 4233 	mov	dpl,r2
      000F49 8B 83            [24] 4234 	mov	dph,r3
      000F4B 8C F0            [24] 4235 	mov	b,r4
      000F4D 12r00r00         [24] 4236 	lcall	__gptrget
      000F50 FF               [12] 4237 	mov	r7,a
      000F51 20 E7 03         [24] 4238 	jb	acc.7,00208$
      000F54 02r0FrFA         [24] 4239 	ljmp	00124$
      000F57                       4240 00208$:
      000F57 E5*00            [12] 4241 	mov	a,_bp
      000F59 24 08            [12] 4242 	add	a,#0x08
      000F5B F8               [12] 4243 	mov	r0,a
      000F5C E6               [12] 4244 	mov	a,@r0
      000F5D 08               [12] 4245 	inc	r0
      000F5E 46               [12] 4246 	orl	a,@r0
      000F5F 60 03            [24] 4247 	jz	00209$
      000F61 02r0FrFA         [24] 4248 	ljmp	00124$
      000F64                       4249 00209$:
                           000F64  4250 	C$u2f_hid.c$546$1$193 ==.
                                   4251 ;	D:\Freelancer_projects\jan333\sdcc_project\src\u2f_hid.c:546: add_new_cid(req->cid);
      000F64 C0 02            [24] 4252 	push	ar2
      000F66 C0 03            [24] 4253 	push	ar3
      000F68 C0 04            [24] 4254 	push	ar4
      000F6A E5*00            [12] 4255 	mov	a,_bp
      000F6C 24 04            [12] 4256 	add	a,#0x04
      000F6E F8               [12] 4257 	mov	r0,a
      000F6F 86 82            [24] 4258 	mov	dpl,@r0
      000F71 08               [12] 4259 	inc	r0
      000F72 86 83            [24] 4260 	mov	dph,@r0
      000F74 08               [12] 4261 	inc	r0
      000F75 86 F0            [24] 4262 	mov	b,@r0
      000F77 08               [12] 4263 	inc	r0
      000F78 E6               [12] 4264 	mov	a,@r0
      000F79 C0 04            [24] 4265 	push	ar4
      000F7B C0 03            [24] 4266 	push	ar3
      000F7D C0 02            [24] 4267 	push	ar2
      000F7F 12r03r7E         [24] 4268 	lcall	_add_new_cid
      000F82 D0 02            [24] 4269 	pop	ar2
      000F84 D0 03            [24] 4270 	pop	ar3
      000F86 D0 04            [24] 4271 	pop	ar4
                           000F88  4272 	C$u2f_hid.c$547$2$201 ==.
                                   4273 ;	D:\Freelancer_projects\jan333\sdcc_project\src\u2f_hid.c:547: cid = get_cid(req->cid);
      000F88 A8*00            [24] 4274 	mov	r0,_bp
      000F8A 08               [12] 4275 	inc	r0
      000F8B 86 82            [24] 4276 	mov	dpl,@r0
      000F8D 08               [12] 4277 	inc	r0
      000F8E 86 83            [24] 4278 	mov	dph,@r0
      000F90 08               [12] 4279 	inc	r0
      000F91 86 F0            [24] 4280 	mov	b,@r0
      000F93 12r00r00         [24] 4281 	lcall	__gptrget
      000F96 FC               [12] 4282 	mov	r4,a
      000F97 A3               [24] 4283 	inc	dptr
      000F98 12r00r00         [24] 4284 	lcall	__gptrget
      000F9B FD               [12] 4285 	mov	r5,a
      000F9C A3               [24] 4286 	inc	dptr
      000F9D 12r00r00         [24] 4287 	lcall	__gptrget
      000FA0 FE               [12] 4288 	mov	r6,a
      000FA1 A3               [24] 4289 	inc	dptr
      000FA2 12r00r00         [24] 4290 	lcall	__gptrget
      000FA5 8C 82            [24] 4291 	mov	dpl,r4
      000FA7 8D 83            [24] 4292 	mov	dph,r5
      000FA9 8E F0            [24] 4293 	mov	b,r6
      000FAB C0 04            [24] 4294 	push	ar4
      000FAD C0 03            [24] 4295 	push	ar3
      000FAF C0 02            [24] 4296 	push	ar2
      000FB1 12r04r0E         [24] 4297 	lcall	_get_cid
      000FB4 AD 82            [24] 4298 	mov	r5,dpl
      000FB6 AE 83            [24] 4299 	mov	r6,dph
      000FB8 AF F0            [24] 4300 	mov	r7,b
      000FBA D0 02            [24] 4301 	pop	ar2
      000FBC D0 03            [24] 4302 	pop	ar3
      000FBE D0 04            [24] 4303 	pop	ar4
      000FC0 E5*00            [12] 4304 	mov	a,_bp
      000FC2 24 08            [12] 4305 	add	a,#0x08
      000FC4 F8               [12] 4306 	mov	r0,a
      000FC5 A6 05            [24] 4307 	mov	@r0,ar5
      000FC7 08               [12] 4308 	inc	r0
      000FC8 A6 06            [24] 4309 	mov	@r0,ar6
      000FCA 08               [12] 4310 	inc	r0
      000FCB A6 07            [24] 4311 	mov	@r0,ar7
                           000FCD  4312 	C$u2f_hid.c$548$1$193 ==.
                                   4313 ;	D:\Freelancer_projects\jan333\sdcc_project\src\u2f_hid.c:548: if (cid == NULL)
      000FCD D0 04            [24] 4314 	pop	ar4
      000FCF D0 03            [24] 4315 	pop	ar3
      000FD1 D0 02            [24] 4316 	pop	ar2
      000FD3 E5*00            [12] 4317 	mov	a,_bp
      000FD5 24 08            [12] 4318 	add	a,#0x08
      000FD7 F8               [12] 4319 	mov	r0,a
      000FD8 E6               [12] 4320 	mov	a,@r0
      000FD9 08               [12] 4321 	inc	r0
      000FDA 46               [12] 4322 	orl	a,@r0
      000FDB 70 03            [24] 4323 	jnz	00118$
                           000FDD  4324 	C$u2f_hid.c$550$3$202 ==.
                                   4325 ;	D:\Freelancer_projects\jan333\sdcc_project\src\u2f_hid.c:550: return;
      000FDD 02r12r9A         [24] 4326 	ljmp	00138$
      000FE0                       4327 00118$:
                           000FE0  4328 	C$u2f_hid.c$552$2$201 ==.
                                   4329 ;	D:\Freelancer_projects\jan333\sdcc_project\src\u2f_hid.c:552: cid->busy = 0;
      000FE0 E5*00            [12] 4330 	mov	a,_bp
      000FE2 24 08            [12] 4331 	add	a,#0x08
      000FE4 F8               [12] 4332 	mov	r0,a
      000FE5 74 08            [12] 4333 	mov	a,#0x08
      000FE7 26               [12] 4334 	add	a,@r0
      000FE8 FD               [12] 4335 	mov	r5,a
      000FE9 E4               [12] 4336 	clr	a
      000FEA 08               [12] 4337 	inc	r0
      000FEB 36               [12] 4338 	addc	a,@r0
      000FEC FE               [12] 4339 	mov	r6,a
      000FED 08               [12] 4340 	inc	r0
      000FEE 86 07            [24] 4341 	mov	ar7,@r0
      000FF0 8D 82            [24] 4342 	mov	dpl,r5
      000FF2 8E 83            [24] 4343 	mov	dph,r6
      000FF4 8F F0            [24] 4344 	mov	b,r7
      000FF6 E4               [12] 4345 	clr	a
      000FF7 12r00r00         [24] 4346 	lcall	__gptrput
      000FFA                       4347 00124$:
                           000FFA  4348 	C$u2f_hid.c$559$1$193 ==.
                                   4349 ;	D:\Freelancer_projects\jan333\sdcc_project\src\u2f_hid.c:559: if (req->pkt.init.cmd == U2FHID_INIT)
      000FFA 8A 82            [24] 4350 	mov	dpl,r2
      000FFC 8B 83            [24] 4351 	mov	dph,r3
      000FFE 8C F0            [24] 4352 	mov	b,r4
      001000 12r00r00         [24] 4353 	lcall	__gptrget
      001003 FF               [12] 4354 	mov	r7,a
      001004 BF 86 1A         [24] 4355 	cjne	r7,#0x86,00126$
                           001007  4356 	C$u2f_hid.c$561$2$203 ==.
                                   4357 ;	D:\Freelancer_projects\jan333\sdcc_project\src\u2f_hid.c:561: cid->busy = 0;
      001007 E5*00            [12] 4358 	mov	a,_bp
      001009 24 08            [12] 4359 	add	a,#0x08
      00100B F8               [12] 4360 	mov	r0,a
      00100C 74 08            [12] 4361 	mov	a,#0x08
      00100E 26               [12] 4362 	add	a,@r0
      00100F FD               [12] 4363 	mov	r5,a
      001010 E4               [12] 4364 	clr	a
      001011 08               [12] 4365 	inc	r0
      001012 36               [12] 4366 	addc	a,@r0
      001013 FE               [12] 4367 	mov	r6,a
      001014 08               [12] 4368 	inc	r0
      001015 86 07            [24] 4369 	mov	ar7,@r0
      001017 8D 82            [24] 4370 	mov	dpl,r5
      001019 8E 83            [24] 4371 	mov	dph,r6
      00101B 8F F0            [24] 4372 	mov	b,r7
      00101D E4               [12] 4373 	clr	a
      00101E 12r00r00         [24] 4374 	lcall	__gptrput
      001021                       4375 00126$:
                           001021  4376 	C$u2f_hid.c$564$1$193 ==.
                                   4377 ;	D:\Freelancer_projects\jan333\sdcc_project\src\u2f_hid.c:564: hid_layer.current_cid = req->cid;
      001021 C0 02            [24] 4378 	push	ar2
      001023 C0 03            [24] 4379 	push	ar3
      001025 C0 04            [24] 4380 	push	ar4
      001027 A8*00            [24] 4381 	mov	r0,_bp
      001029 08               [12] 4382 	inc	r0
      00102A 86 82            [24] 4383 	mov	dpl,@r0
      00102C 08               [12] 4384 	inc	r0
      00102D 86 83            [24] 4385 	mov	dph,@r0
      00102F 08               [12] 4386 	inc	r0
      001030 86 F0            [24] 4387 	mov	b,@r0
      001032 12r00r00         [24] 4388 	lcall	__gptrget
      001035 FC               [12] 4389 	mov	r4,a
      001036 A3               [24] 4390 	inc	dptr
      001037 12r00r00         [24] 4391 	lcall	__gptrget
      00103A FD               [12] 4392 	mov	r5,a
      00103B A3               [24] 4393 	inc	dptr
      00103C 12r00r00         [24] 4394 	lcall	__gptrget
      00103F FE               [12] 4395 	mov	r6,a
      001040 A3               [24] 4396 	inc	dptr
      001041 12r00r00         [24] 4397 	lcall	__gptrget
      001044 FF               [12] 4398 	mov	r7,a
      001045 90r00r01         [24] 4399 	mov	dptr,#(_hid_layer + 0x0001)
      001048 EC               [12] 4400 	mov	a,r4
      001049 F0               [24] 4401 	movx	@dptr,a
      00104A ED               [12] 4402 	mov	a,r5
      00104B A3               [24] 4403 	inc	dptr
      00104C F0               [24] 4404 	movx	@dptr,a
      00104D EE               [12] 4405 	mov	a,r6
      00104E A3               [24] 4406 	inc	dptr
      00104F F0               [24] 4407 	movx	@dptr,a
      001050 EF               [12] 4408 	mov	a,r7
      001051 A3               [24] 4409 	inc	dptr
      001052 F0               [24] 4410 	movx	@dptr,a
                           001053  4411 	C$u2f_hid.c$565$1$193 ==.
                                   4412 ;	D:\Freelancer_projects\jan333\sdcc_project\src\u2f_hid.c:565: hid_layer.last_buffered = get_ms();
      001053 90r00r06         [24] 4413 	mov	dptr,#(_hid_layer + 0x0006)
      001056 E5*00            [12] 4414 	mov	a,__MS_
      001058 F0               [24] 4415 	movx	@dptr,a
      001059 E5*01            [12] 4416 	mov	a,(__MS_ + 1)
      00105B A3               [24] 4417 	inc	dptr
      00105C F0               [24] 4418 	movx	@dptr,a
      00105D E5*02            [12] 4419 	mov	a,(__MS_ + 2)
      00105F A3               [24] 4420 	inc	dptr
      001060 F0               [24] 4421 	movx	@dptr,a
      001061 E5*03            [12] 4422 	mov	a,(__MS_ + 3)
      001063 A3               [24] 4423 	inc	dptr
      001064 F0               [24] 4424 	movx	@dptr,a
                           001065  4425 	C$u2f_hid.c$567$1$193 ==.
                                   4426 ;	D:\Freelancer_projects\jan333\sdcc_project\src\u2f_hid.c:567: cid->last_used = get_ms();
      001065 E5*00            [12] 4427 	mov	a,_bp
      001067 24 08            [12] 4428 	add	a,#0x08
      001069 F8               [12] 4429 	mov	r0,a
      00106A 74 04            [12] 4430 	mov	a,#0x04
      00106C 26               [12] 4431 	add	a,@r0
      00106D FD               [12] 4432 	mov	r5,a
      00106E E4               [12] 4433 	clr	a
      00106F 08               [12] 4434 	inc	r0
      001070 36               [12] 4435 	addc	a,@r0
      001071 FE               [12] 4436 	mov	r6,a
      001072 08               [12] 4437 	inc	r0
      001073 86 07            [24] 4438 	mov	ar7,@r0
      001075 8D 82            [24] 4439 	mov	dpl,r5
      001077 8E 83            [24] 4440 	mov	dph,r6
      001079 8F F0            [24] 4441 	mov	b,r7
      00107B E5*00            [12] 4442 	mov	a,__MS_
      00107D 12r00r00         [24] 4443 	lcall	__gptrput
      001080 A3               [24] 4444 	inc	dptr
      001081 E5*01            [12] 4445 	mov	a,(__MS_ + 1)
      001083 12r00r00         [24] 4446 	lcall	__gptrput
      001086 A3               [24] 4447 	inc	dptr
      001087 E5*02            [12] 4448 	mov	a,(__MS_ + 2)
      001089 12r00r00         [24] 4449 	lcall	__gptrput
      00108C A3               [24] 4450 	inc	dptr
      00108D E5*03            [12] 4451 	mov	a,(__MS_ + 3)
      00108F 12r00r00         [24] 4452 	lcall	__gptrput
                           001092  4453 	C$u2f_hid.c$572$1$193 ==.
                                   4454 ;	D:\Freelancer_projects\jan333\sdcc_project\src\u2f_hid.c:572: if(hid_is_locked() && req->pkt.init.cmd != U2FHID_INIT)
      001092 90r00r00         [24] 4455 	mov	dptr,#__hid_lockt
      001095 E0               [24] 4456 	movx	a,@dptr
      001096 FC               [12] 4457 	mov	r4,a
      001097 A3               [24] 4458 	inc	dptr
      001098 E0               [24] 4459 	movx	a,@dptr
      001099 FD               [12] 4460 	mov	r5,a
      00109A A3               [24] 4461 	inc	dptr
      00109B E0               [24] 4462 	movx	a,@dptr
      00109C FE               [12] 4463 	mov	r6,a
      00109D A3               [24] 4464 	inc	dptr
      00109E E0               [24] 4465 	movx	a,@dptr
      00109F FF               [12] 4466 	mov	r7,a
      0010A0 C3               [12] 4467 	clr	c
      0010A1 E5*00            [12] 4468 	mov	a,__MS_
      0010A3 9C               [12] 4469 	subb	a,r4
      0010A4 E5*01            [12] 4470 	mov	a,(__MS_ + 1)
      0010A6 9D               [12] 4471 	subb	a,r5
      0010A7 E5*02            [12] 4472 	mov	a,(__MS_ + 2)
      0010A9 9E               [12] 4473 	subb	a,r6
      0010AA E5*03            [12] 4474 	mov	a,(__MS_ + 3)
      0010AC 9F               [12] 4475 	subb	a,r7
      0010AD D0 04            [24] 4476 	pop	ar4
      0010AF D0 03            [24] 4477 	pop	ar3
      0010B1 D0 02            [24] 4478 	pop	ar2
      0010B3 40 03            [24] 4479 	jc	00213$
      0010B5 02r11r42         [24] 4480 	ljmp	00130$
      0010B8                       4481 00213$:
      0010B8 8A 82            [24] 4482 	mov	dpl,r2
      0010BA 8B 83            [24] 4483 	mov	dph,r3
      0010BC 8C F0            [24] 4484 	mov	b,r4
      0010BE 12r00r00         [24] 4485 	lcall	__gptrget
      0010C1 FF               [12] 4486 	mov	r7,a
      0010C2 BF 86 02         [24] 4487 	cjne	r7,#0x86,00214$
      0010C5 80 7B            [24] 4488 	sjmp	00130$
      0010C7                       4489 00214$:
                           0010C7  4490 	C$u2f_hid.c$574$1$193 ==.
                                   4491 ;	D:\Freelancer_projects\jan333\sdcc_project\src\u2f_hid.c:574: if (!hid_is_lock_cid(req->cid))
      0010C7 C0 02            [24] 4492 	push	ar2
      0010C9 C0 03            [24] 4493 	push	ar3
      0010CB C0 04            [24] 4494 	push	ar4
      0010CD A8*00            [24] 4495 	mov	r0,_bp
      0010CF 08               [12] 4496 	inc	r0
      0010D0 86 82            [24] 4497 	mov	dpl,@r0
      0010D2 08               [12] 4498 	inc	r0
      0010D3 86 83            [24] 4499 	mov	dph,@r0
      0010D5 08               [12] 4500 	inc	r0
      0010D6 86 F0            [24] 4501 	mov	b,@r0
      0010D8 E5*00            [12] 4502 	mov	a,_bp
      0010DA 24 04            [12] 4503 	add	a,#0x04
      0010DC F9               [12] 4504 	mov	r1,a
      0010DD 12r00r00         [24] 4505 	lcall	__gptrget
      0010E0 F7               [12] 4506 	mov	@r1,a
      0010E1 A3               [24] 4507 	inc	dptr
      0010E2 12r00r00         [24] 4508 	lcall	__gptrget
      0010E5 09               [12] 4509 	inc	r1
      0010E6 F7               [12] 4510 	mov	@r1,a
      0010E7 A3               [24] 4511 	inc	dptr
      0010E8 12r00r00         [24] 4512 	lcall	__gptrget
      0010EB 09               [12] 4513 	inc	r1
      0010EC F7               [12] 4514 	mov	@r1,a
      0010ED A3               [24] 4515 	inc	dptr
      0010EE 12r00r00         [24] 4516 	lcall	__gptrget
      0010F1 09               [12] 4517 	inc	r1
      0010F2 F7               [12] 4518 	mov	@r1,a
      0010F3 90r00r04         [24] 4519 	mov	dptr,#__hid_lock_cid
      0010F6 E0               [24] 4520 	movx	a,@dptr
      0010F7 FC               [12] 4521 	mov	r4,a
      0010F8 A3               [24] 4522 	inc	dptr
      0010F9 E0               [24] 4523 	movx	a,@dptr
      0010FA FD               [12] 4524 	mov	r5,a
      0010FB A3               [24] 4525 	inc	dptr
      0010FC E0               [24] 4526 	movx	a,@dptr
      0010FD FE               [12] 4527 	mov	r6,a
      0010FE A3               [24] 4528 	inc	dptr
      0010FF E0               [24] 4529 	movx	a,@dptr
      001100 FF               [12] 4530 	mov	r7,a
      001101 E5*00            [12] 4531 	mov	a,_bp
      001103 24 04            [12] 4532 	add	a,#0x04
      001105 F8               [12] 4533 	mov	r0,a
      001106 E6               [12] 4534 	mov	a,@r0
      001107 B5 04 17         [24] 4535 	cjne	a,ar4,00215$
      00110A 08               [12] 4536 	inc	r0
      00110B E6               [12] 4537 	mov	a,@r0
      00110C B5 05 12         [24] 4538 	cjne	a,ar5,00215$
      00110F 08               [12] 4539 	inc	r0
      001110 E6               [12] 4540 	mov	a,@r0
      001111 B5 06 0D         [24] 4541 	cjne	a,ar6,00215$
      001114 08               [12] 4542 	inc	r0
      001115 E6               [12] 4543 	mov	a,@r0
      001116 B5 07 08         [24] 4544 	cjne	a,ar7,00215$
      001119 D0 04            [24] 4545 	pop	ar4
      00111B D0 03            [24] 4546 	pop	ar3
      00111D D0 02            [24] 4547 	pop	ar2
      00111F 80 21            [24] 4548 	sjmp	00130$
      001121                       4549 00215$:
      001121 D0 04            [24] 4550 	pop	ar4
      001123 D0 03            [24] 4551 	pop	ar3
      001125 D0 02            [24] 4552 	pop	ar2
                           001127  4553 	C$u2f_hid.c$576$3$205 ==.
                                   4554 ;	D:\Freelancer_projects\jan333\sdcc_project\src\u2f_hid.c:576: stamp_error(req->cid, ERR_CHANNEL_BUSY);
      001127 74 06            [12] 4555 	mov	a,#0x06
      001129 C0 E0            [24] 4556 	push	acc
      00112B E5*00            [12] 4557 	mov	a,_bp
      00112D 24 04            [12] 4558 	add	a,#0x04
      00112F F8               [12] 4559 	mov	r0,a
      001130 86 82            [24] 4560 	mov	dpl,@r0
      001132 08               [12] 4561 	inc	r0
      001133 86 83            [24] 4562 	mov	dph,@r0
      001135 08               [12] 4563 	inc	r0
      001136 86 F0            [24] 4564 	mov	b,@r0
      001138 08               [12] 4565 	inc	r0
      001139 E6               [12] 4566 	mov	a,@r0
      00113A 12r05r28         [24] 4567 	lcall	_stamp_error
      00113D 15 81            [12] 4568 	dec	sp
                           00113F  4569 	C$u2f_hid.c$577$3$205 ==.
                                   4570 ;	D:\Freelancer_projects\jan333\sdcc_project\src\u2f_hid.c:577: return;
      00113F 02r12r9A         [24] 4571 	ljmp	00138$
      001142                       4572 00130$:
                           001142  4573 	C$u2f_hid.c$582$1$193 ==.
                                   4574 ;	D:\Freelancer_projects\jan333\sdcc_project\src\u2f_hid.c:582: if ((req->pkt.init.cmd & TYPE_INIT) && !cid->busy)
      001142 8A 82            [24] 4575 	mov	dpl,r2
      001144 8B 83            [24] 4576 	mov	dph,r3
      001146 8C F0            [24] 4577 	mov	b,r4
      001148 12r00r00         [24] 4578 	lcall	__gptrget
      00114B FF               [12] 4579 	mov	r7,a
      00114C 30 E7 64         [24] 4580 	jnb	acc.7,00135$
      00114F E5*00            [12] 4581 	mov	a,_bp
      001151 24 08            [12] 4582 	add	a,#0x08
      001153 F8               [12] 4583 	mov	r0,a
      001154 74 08            [12] 4584 	mov	a,#0x08
      001156 26               [12] 4585 	add	a,@r0
      001157 FD               [12] 4586 	mov	r5,a
      001158 E4               [12] 4587 	clr	a
      001159 08               [12] 4588 	inc	r0
      00115A 36               [12] 4589 	addc	a,@r0
      00115B FE               [12] 4590 	mov	r6,a
      00115C 08               [12] 4591 	inc	r0
      00115D 86 07            [24] 4592 	mov	ar7,@r0
      00115F 8D 82            [24] 4593 	mov	dpl,r5
      001161 8E 83            [24] 4594 	mov	dph,r6
      001163 8F F0            [24] 4595 	mov	b,r7
      001165 12r00r00         [24] 4596 	lcall	__gptrget
      001168 70 49            [24] 4597 	jnz	00135$
                           00116A  4598 	C$u2f_hid.c$584$2$206 ==.
                                   4599 ;	D:\Freelancer_projects\jan333\sdcc_project\src\u2f_hid.c:584: cid->last_cmd = req->pkt.init.cmd;
      00116A E5*00            [12] 4600 	mov	a,_bp
      00116C 24 08            [12] 4601 	add	a,#0x08
      00116E F8               [12] 4602 	mov	r0,a
      00116F E5*00            [12] 4603 	mov	a,_bp
      001171 24 04            [12] 4604 	add	a,#0x04
      001173 F9               [12] 4605 	mov	r1,a
      001174 74 09            [12] 4606 	mov	a,#0x09
      001176 26               [12] 4607 	add	a,@r0
      001177 F7               [12] 4608 	mov	@r1,a
      001178 E4               [12] 4609 	clr	a
      001179 08               [12] 4610 	inc	r0
      00117A 36               [12] 4611 	addc	a,@r0
      00117B 09               [12] 4612 	inc	r1
      00117C F7               [12] 4613 	mov	@r1,a
      00117D 08               [12] 4614 	inc	r0
      00117E 09               [12] 4615 	inc	r1
      00117F E6               [12] 4616 	mov	a,@r0
      001180 F7               [12] 4617 	mov	@r1,a
      001181 8A 82            [24] 4618 	mov	dpl,r2
      001183 8B 83            [24] 4619 	mov	dph,r3
      001185 8C F0            [24] 4620 	mov	b,r4
      001187 12r00r00         [24] 4621 	lcall	__gptrget
      00118A FF               [12] 4622 	mov	r7,a
      00118B E5*00            [12] 4623 	mov	a,_bp
      00118D 24 04            [12] 4624 	add	a,#0x04
      00118F F8               [12] 4625 	mov	r0,a
      001190 86 82            [24] 4626 	mov	dpl,@r0
      001192 08               [12] 4627 	inc	r0
      001193 86 83            [24] 4628 	mov	dph,@r0
      001195 08               [12] 4629 	inc	r0
      001196 86 F0            [24] 4630 	mov	b,@r0
      001198 EF               [12] 4631 	mov	a,r7
      001199 12r00r00         [24] 4632 	lcall	__gptrput
                           00119C  4633 	C$u2f_hid.c$585$2$206 ==.
                                   4634 ;	D:\Freelancer_projects\jan333\sdcc_project\src\u2f_hid.c:585: hid_layer.current_cmd = req->pkt.init.cmd;
      00119C 8A 82            [24] 4635 	mov	dpl,r2
      00119E 8B 83            [24] 4636 	mov	dph,r3
      0011A0 8C F0            [24] 4637 	mov	b,r4
      0011A2 12r00r00         [24] 4638 	lcall	__gptrget
      0011A5 FA               [12] 4639 	mov	r2,a
      0011A6 90r00r05         [24] 4640 	mov	dptr,#(_hid_layer + 0x0005)
      0011A9 F0               [24] 4641 	movx	@dptr,a
                           0011AA  4642 	C$u2f_hid.c$586$2$206 ==.
                                   4643 ;	D:\Freelancer_projects\jan333\sdcc_project\src\u2f_hid.c:586: last_seq = -1;
      0011AA 90r01rD6         [24] 4644 	mov	dptr,#_u2f_hid_request_last_seq_1_193
      0011AD 74 FF            [12] 4645 	mov	a,#0xff
      0011AF F0               [24] 4646 	movx	@dptr,a
      0011B0 02r12r64         [24] 4647 	ljmp	00136$
      0011B3                       4648 00135$:
                           0011B3  4649 	C$u2f_hid.c$594$2$207 ==.
                                   4650 ;	D:\Freelancer_projects\jan333\sdcc_project\src\u2f_hid.c:594: hid_layer.last_buffered = get_ms();
      0011B3 90r00r06         [24] 4651 	mov	dptr,#(_hid_layer + 0x0006)
      0011B6 E5*00            [12] 4652 	mov	a,__MS_
      0011B8 F0               [24] 4653 	movx	@dptr,a
      0011B9 E5*01            [12] 4654 	mov	a,(__MS_ + 1)
      0011BB A3               [24] 4655 	inc	dptr
      0011BC F0               [24] 4656 	movx	@dptr,a
      0011BD E5*02            [12] 4657 	mov	a,(__MS_ + 2)
      0011BF A3               [24] 4658 	inc	dptr
      0011C0 F0               [24] 4659 	movx	@dptr,a
      0011C1 E5*03            [12] 4660 	mov	a,(__MS_ + 3)
      0011C3 A3               [24] 4661 	inc	dptr
      0011C4 F0               [24] 4662 	movx	@dptr,a
                           0011C5  4663 	C$u2f_hid.c$595$2$207 ==.
                                   4664 ;	D:\Freelancer_projects\jan333\sdcc_project\src\u2f_hid.c:595: if (last_seq + 1 != req->pkt.cont.seq)
      0011C5 90r01rD6         [24] 4665 	mov	dptr,#_u2f_hid_request_last_seq_1_193
      0011C8 E0               [24] 4666 	movx	a,@dptr
      0011C9 FF               [12] 4667 	mov	r7,a
      0011CA 33               [12] 4668 	rlc	a
      0011CB 95 E0            [12] 4669 	subb	a,acc
      0011CD FE               [12] 4670 	mov	r6,a
      0011CE E5*00            [12] 4671 	mov	a,_bp
      0011D0 24 04            [12] 4672 	add	a,#0x04
      0011D2 F8               [12] 4673 	mov	r0,a
      0011D3 74 01            [12] 4674 	mov	a,#0x01
      0011D5 2F               [12] 4675 	add	a,r7
      0011D6 F6               [12] 4676 	mov	@r0,a
      0011D7 E4               [12] 4677 	clr	a
      0011D8 3E               [12] 4678 	addc	a,r6
      0011D9 08               [12] 4679 	inc	r0
      0011DA F6               [12] 4680 	mov	@r0,a
      0011DB A8*00            [24] 4681 	mov	r0,_bp
      0011DD 08               [12] 4682 	inc	r0
      0011DE 74 04            [12] 4683 	mov	a,#0x04
      0011E0 26               [12] 4684 	add	a,@r0
      0011E1 FB               [12] 4685 	mov	r3,a
      0011E2 E4               [12] 4686 	clr	a
      0011E3 08               [12] 4687 	inc	r0
      0011E4 36               [12] 4688 	addc	a,@r0
      0011E5 FC               [12] 4689 	mov	r4,a
      0011E6 08               [12] 4690 	inc	r0
      0011E7 86 05            [24] 4691 	mov	ar5,@r0
      0011E9 8B 82            [24] 4692 	mov	dpl,r3
      0011EB 8C 83            [24] 4693 	mov	dph,r4
      0011ED 8D F0            [24] 4694 	mov	b,r5
      0011EF 12r00r00         [24] 4695 	lcall	__gptrget
      0011F2 FA               [12] 4696 	mov	r2,a
      0011F3 7F 00            [12] 4697 	mov	r7,#0x00
      0011F5 E5*00            [12] 4698 	mov	a,_bp
      0011F7 24 04            [12] 4699 	add	a,#0x04
      0011F9 F8               [12] 4700 	mov	r0,a
      0011FA E6               [12] 4701 	mov	a,@r0
      0011FB B5 02 07         [24] 4702 	cjne	a,ar2,00218$
      0011FE 08               [12] 4703 	inc	r0
      0011FF E6               [12] 4704 	mov	a,@r0
      001200 B5 07 02         [24] 4705 	cjne	a,ar7,00218$
      001203 80 33            [24] 4706 	sjmp	00133$
      001205                       4707 00218$:
                           001205  4708 	C$u2f_hid.c$597$3$208 ==.
                                   4709 ;	D:\Freelancer_projects\jan333\sdcc_project\src\u2f_hid.c:597: stamp_error(hid_layer.current_cid, ERR_INVALID_SEQ);
      001205 90r00r01         [24] 4710 	mov	dptr,#(_hid_layer + 0x0001)
      001208 E5*00            [12] 4711 	mov	a,_bp
      00120A 24 04            [12] 4712 	add	a,#0x04
      00120C F8               [12] 4713 	mov	r0,a
      00120D E0               [24] 4714 	movx	a,@dptr
      00120E F6               [12] 4715 	mov	@r0,a
      00120F A3               [24] 4716 	inc	dptr
      001210 E0               [24] 4717 	movx	a,@dptr
      001211 08               [12] 4718 	inc	r0
      001212 F6               [12] 4719 	mov	@r0,a
      001213 A3               [24] 4720 	inc	dptr
      001214 E0               [24] 4721 	movx	a,@dptr
      001215 08               [12] 4722 	inc	r0
      001216 F6               [12] 4723 	mov	@r0,a
      001217 A3               [24] 4724 	inc	dptr
      001218 E0               [24] 4725 	movx	a,@dptr
      001219 08               [12] 4726 	inc	r0
      00121A F6               [12] 4727 	mov	@r0,a
      00121B 74 04            [12] 4728 	mov	a,#0x04
      00121D C0 E0            [24] 4729 	push	acc
      00121F E5*00            [12] 4730 	mov	a,_bp
      001221 24 04            [12] 4731 	add	a,#0x04
      001223 F8               [12] 4732 	mov	r0,a
      001224 86 82            [24] 4733 	mov	dpl,@r0
      001226 08               [12] 4734 	inc	r0
      001227 86 83            [24] 4735 	mov	dph,@r0
      001229 08               [12] 4736 	inc	r0
      00122A 86 F0            [24] 4737 	mov	b,@r0
      00122C 08               [12] 4738 	inc	r0
      00122D E6               [12] 4739 	mov	a,@r0
      00122E 12r05r28         [24] 4740 	lcall	_stamp_error
      001231 15 81            [12] 4741 	dec	sp
                           001233  4742 	C$u2f_hid.c$598$3$208 ==.
                                   4743 ;	D:\Freelancer_projects\jan333\sdcc_project\src\u2f_hid.c:598: u2f_hid_reset_packet();
      001233 12r00r53         [24] 4744 	lcall	_u2f_hid_reset_packet
                           001236  4745 	C$u2f_hid.c$599$3$208 ==.
                                   4746 ;	D:\Freelancer_projects\jan333\sdcc_project\src\u2f_hid.c:599: return;
      001236 80 62            [24] 4747 	sjmp	00138$
      001238                       4748 00133$:
                           001238  4749 	C$u2f_hid.c$601$2$207 ==.
                                   4750 ;	D:\Freelancer_projects\jan333\sdcc_project\src\u2f_hid.c:601: last_seq = req->pkt.cont.seq;
      001238 8B 82            [24] 4751 	mov	dpl,r3
      00123A 8C 83            [24] 4752 	mov	dph,r4
      00123C 8D F0            [24] 4753 	mov	b,r5
      00123E 12r00r00         [24] 4754 	lcall	__gptrget
      001241 FB               [12] 4755 	mov	r3,a
      001242 90r01rD6         [24] 4756 	mov	dptr,#_u2f_hid_request_last_seq_1_193
      001245 F0               [24] 4757 	movx	@dptr,a
                           001246  4758 	C$u2f_hid.c$603$2$207 ==.
                                   4759 ;	D:\Freelancer_projects\jan333\sdcc_project\src\u2f_hid.c:603: hid_layer.current_cmd = cid->last_cmd;
      001246 E5*00            [12] 4760 	mov	a,_bp
      001248 24 08            [12] 4761 	add	a,#0x08
      00124A F8               [12] 4762 	mov	r0,a
      00124B 74 09            [12] 4763 	mov	a,#0x09
      00124D 26               [12] 4764 	add	a,@r0
      00124E FD               [12] 4765 	mov	r5,a
      00124F E4               [12] 4766 	clr	a
      001250 08               [12] 4767 	inc	r0
      001251 36               [12] 4768 	addc	a,@r0
      001252 FE               [12] 4769 	mov	r6,a
      001253 08               [12] 4770 	inc	r0
      001254 86 07            [24] 4771 	mov	ar7,@r0
      001256 8D 82            [24] 4772 	mov	dpl,r5
      001258 8E 83            [24] 4773 	mov	dph,r6
      00125A 8F F0            [24] 4774 	mov	b,r7
      00125C 12r00r00         [24] 4775 	lcall	__gptrget
      00125F FD               [12] 4776 	mov	r5,a
      001260 90r00r05         [24] 4777 	mov	dptr,#(_hid_layer + 0x0005)
      001263 F0               [24] 4778 	movx	@dptr,a
      001264                       4779 00136$:
                           001264  4780 	C$u2f_hid.c$607$1$193 ==.
                                   4781 ;	D:\Freelancer_projects\jan333\sdcc_project\src\u2f_hid.c:607: cid->busy = hid_u2f_parse(req);
      001264 E5*00            [12] 4782 	mov	a,_bp
      001266 24 08            [12] 4783 	add	a,#0x08
      001268 F8               [12] 4784 	mov	r0,a
      001269 74 08            [12] 4785 	mov	a,#0x08
      00126B 26               [12] 4786 	add	a,@r0
      00126C FD               [12] 4787 	mov	r5,a
      00126D E4               [12] 4788 	clr	a
      00126E 08               [12] 4789 	inc	r0
      00126F 36               [12] 4790 	addc	a,@r0
      001270 FE               [12] 4791 	mov	r6,a
      001271 08               [12] 4792 	inc	r0
      001272 86 07            [24] 4793 	mov	ar7,@r0
      001274 A8*00            [24] 4794 	mov	r0,_bp
      001276 08               [12] 4795 	inc	r0
      001277 86 82            [24] 4796 	mov	dpl,@r0
      001279 08               [12] 4797 	inc	r0
      00127A 86 83            [24] 4798 	mov	dph,@r0
      00127C 08               [12] 4799 	inc	r0
      00127D 86 F0            [24] 4800 	mov	b,@r0
      00127F C0 07            [24] 4801 	push	ar7
      001281 C0 06            [24] 4802 	push	ar6
      001283 C0 05            [24] 4803 	push	ar5
      001285 12r06rF7         [24] 4804 	lcall	_hid_u2f_parse
      001288 AC 82            [24] 4805 	mov	r4,dpl
      00128A D0 05            [24] 4806 	pop	ar5
      00128C D0 06            [24] 4807 	pop	ar6
      00128E D0 07            [24] 4808 	pop	ar7
      001290 8D 82            [24] 4809 	mov	dpl,r5
      001292 8E 83            [24] 4810 	mov	dph,r6
      001294 8F F0            [24] 4811 	mov	b,r7
      001296 EC               [12] 4812 	mov	a,r4
      001297 12r00r00         [24] 4813 	lcall	__gptrput
      00129A                       4814 00138$:
      00129A 85*00 81         [24] 4815 	mov	sp,_bp
      00129D D0*00            [24] 4816 	pop	_bp
                           00129F  4817 	C$u2f_hid.c$609$1$193 ==.
                           00129F  4818 	XG$u2f_hid_request$0$0 ==.
      00129F 22               [24] 4819 	ret
                                   4820 	.area CSEG    (CODE)
                                   4821 	.area CONST   (CODE)
                           000000  4822 Fu2f_hid$__str_0$0$0 == .
      000000                       4823 ___str_0:
      000000 69 6E 76 61 6C 69 64  4824 	.ascii "invalid cmd: "
             20 63 6D 64 3A 20
      00000D 00                    4825 	.db 0x00
                           00000E  4826 Fu2f_hid$__str_1$0$0 == .
      00000E                       4827 ___str_1:
      00000E 55 32 46 20 48 49 44  4828 	.ascii "U2F HID FAIL"
             20 46 41 49 4C
      00001A 0D                    4829 	.db 0x0d
      00001B 0A                    4830 	.db 0x0a
      00001C 00                    4831 	.db 0x00
                           00001D  4832 Fu2f_hid$__str_2$0$0 == .
      00001D                       4833 ___str_2:
      00001D 74 69 6D 65 6F 75 74  4834 	.ascii "timeout cid "
             20 63 69 64 20
      000029 00                    4835 	.db 0x00
                                   4836 	.area XINIT   (CODE)
                           000000  4837 Fu2f_hid$__xinit__hid_lockt$0$0 == .
      000000                       4838 __xinit___hid_lockt:
      000000 00 00 00 00           4839 	.byte #0x00,#0x00,#0x00,#0x00	; 0
                           000004  4840 Fu2f_hid$__xinit__hid_lock_cid$0$0 == .
      000004                       4841 __xinit___hid_lock_cid:
      000004 00 00 00 00           4842 	.byte #0x00,#0x00,#0x00,#0x00	; 0
                           000008  4843 Fu2f_hid$__xinit_CID_NUM$0$0 == .
      000008                       4844 __xinit__CID_NUM:
      000008 00                    4845 	.db #0x00	; 0
                           000009  4846 Fu2f_hid$__xinit__hid_offset$0$0 == .
      000009                       4847 __xinit___hid_offset:
      000009 00                    4848 	.db #0x00	; 0
                           00000A  4849 Fu2f_hid$__xinit__hid_seq$0$0 == .
      00000A                       4850 __xinit___hid_seq:
      00000A 00 00                 4851 	.byte #0x00,#0x00	; 0
                           00000C  4852 Fu2f_hid$__xinit__hid_in_session$0$0 == .
      00000C                       4853 __xinit___hid_in_session:
      00000C 00                    4854 	.db #0x00	; 0
                                   4855 	.area CABS    (ABS,CODE)
